(lp0
(dp1
S'text'
p2
S'"Insubordination."'
p3
sS'episode'
p4
S'hollow'
p5
sS'word_count'
p6
I1
sa(dp7
g2
S'"Just shy"... sounds like nothing serious, doesn\'t it... You can\'t know.'
p8
sg4
S'hollow'
p9
sg6
I11
sa(dp10
g2
S'Before the end of the day.'
p11
sg4
S'hollow'
p12
sg6
I6
sa(dp13
g2
S"Being afraid all the time that I'll forget somebody's name. Or not knowing what to do with my hands..."
p14
sg4
S'hollow'
p15
sg6
I19
sa(dp16
g2
S'But the Mikulaks might still be using it.'
p17
sg4
S'hollow'
p18
sg6
I8
sa(dp19
g2
S"But... if it were something... something that we couldn't scan...  You might've passed it to the injectors when you were realigning the magnetic capacitors."
p20
sg4
S'hollow'
p21
sg6
I24
sa(dp22
g2
S'Erase all programs filed under Reginald Barclay.'
p23
sg4
S'hollow'
p24
sg6
I7
sa(dp25
g2
S'Everything looks... it looks normal to me...'
p26
sg4
S'hollow'
p27
sg6
I7
sa(dp28
g2
S'Except... Program Nine...'
p29
sg4
S'hollow'
p30
sg6
I3
sa(dp31
g2
S"I don't know. But we're looking for... a, a systemic explanation and there isn't one. We work with all the systems that are affected ... what if we're transmitting something ourselves... by touching it, or something..."
p32
sg4
S'hollow'
p33
sg6
I36
sa(dp34
g2
S'I had to... I was going to do it anyway...'
p35
sg4
S'hollow'
p36
sg6
I10
sa(dp37
g2
S"I just couldn't keep my eyes open... I'd worked twelve hours on the power systems and then the transporter went down and..."
p38
sg4
S'hollow'
p39
sg6
I22
sa(dp40
g2
S"I just didn't know what to say."
p41
sg4
S'hollow'
p42
sg6
I7
sa(dp43
g2
S"I know. That's what makes it hard to go."
p44
sg4
S'hollow'
p45
sg6
I9
sa(dp46
g2
S"I know... I didn't want to... I just couldn't help myself..."
p47
sg4
S'hollow'
p48
sg6
I11
sa(dp49
g2
S"I should have told him to mind his own damned business... I knew about the flow capacitor... I didn't need to hear about it from a seventeen year old kid."
p50
sg4
S'hollow'
p51
sg6
I30
sa(dp52
g2
S'I was just kind of really... well, it was just... I needed to blow off some steam... because one... one of the officers had been on my back...'
p53
sg4
S'hollow'
p54
sg6
I28
sa(dp55
g2
S'I will speak with my sword, sir...'
p56
sg4
S'hollow'
p57
sg6
I7
sa(dp58
g2
S"I'd like that."
p59
sg4
S'hollow'
p60
sg6
I3
sa(dp61
g2
S"I'll be on time, sir."
p62
sg4
S'hollow'
p63
sg6
I5
sa(dp64
g2
S"I'll get a preliminary report to you..."
p65
sg4
S'hollow'
p66
sg6
I7
sa(dp67
g2
S"I'll... I'll disassemble it later, Commander... it shouldn't do that... well, of course, it shouldn't do that... I mean... well, it shouldn't do that."
p68
sg4
S'hollow'
p69
sg6
I24
sa(dp70
g2
S"I'll... I'll make it easy for you, Commander. I'll just request reassignment..."
p71
sg4
S'hollow'
p72
sg6
I12
sa(dp73
g2
S"I've... I've been planning to run diagnostics on the graviton invertor circuits..."
p74
sg4
S'hollow'
p75
sg6
I12
sa(dp76
g2
S"I... I don't understand..."
p77
sg4
S'hollow'
p78
sg6
I4
sa(dp79
g2
S'I... I... I realize that...'
p80
sg4
S'hollow'
p81
sg6
I5
sa(dp82
g2
S'I... think we should drop out of warp.'
p83
sg4
S'hollow'
p84
sg6
I8
sa(dp85
g2
S'I... was going to.'
p86
sg4
S'hollow'
p87
sg6
I4
sa(dp88
g2
S"If we can get it... the invidium... down to minus two hundred degrees Celsius, it'll become inert."
p89
sg4
S'hollow'
p90
sg6
I17
sa(dp91
g2
S"If you'll excuse me."
p92
sg4
S'hollow'
p93
sg6
I4
sa(dp94
g2
S'Is that a fact?'
p95
sg4
S'hollow'
p96
sg6
I4
sa(dp97
g2
S'It has been most difficult to reach this decision to leave you... but after thinking it over, discussing it at length with Counselor Troi... I think it is for the best... I just wanted to thank you all for your support...'
p98
sg4
S'hollow'
p99
sg6
I41
sa(dp100
g2
S"It's been fun.  Computer, end program."
p101
sg4
S'hollow'
p102
sg6
I6
sa(dp103
g2
S"It's not a computer problem. The mechanism is physically jammed.  I can't clear it."
p104
sg4
S'hollow'
p105
sg6
I14
sa(dp106
g2
S"It's the injectors."
p107
sg4
S'hollow'
p108
sg6
I3
sa(dp109
g2
S"It's... it's just more comfortable... when I'm in there.  You don't know what a struggle it is for me, Commander."
p110
sg4
S'hollow'
p111
sg6
I20
sa(dp112
g2
S"Jakmanite has a half life of about fifteen seconds. There wouldn't be enough time to spread it around the ship."
p113
sg4
S'hollow'
p114
sg6
I20
sa(dp115
g2
S"Jean-Luc. Not that old trick. I'm disappointed in you."
p116
sg4
S'hollow'
p117
sg6
I9
sa(dp118
g2
S'Look, pal. Do me a favor. Take yourself and your holier-than-thou attitude and get out of my life.'
p119
sg4
S'hollow'
p120
sg6
I18
sa(dp121
g2
S"Look, we both know... the whole ship knows... I can't cut it here."
p122
sg4
S'hollow'
p123
sg6
I13
sa(dp124
g2
S"Mmm, nice... but I'm in the mood for someplace a little more... unusual...  Computer. Run Barclay Program Fifteen."
p125
sg4
S'hollow'
p126
sg6
I18
sa(dp127
g2
S'My cases... ?'
p128
sg4
S'hollow'
p129
sg6
I3
sa(dp130
g2
S'No!'
p131
sg4
S'hollow'
p132
sg6
I1
sa(dp133
g2
S"No, but you're good. You were born to be in Starfleet. Me..."
p134
sg4
S'hollow'
p135
sg6
I12
sa(dp136
g2
S"No, it wasn't. Not really."
p137
sg4
S'hollow'
p138
sg6
I5
sa(dp139
g2
S"No... nossir... we'll have to shut off some systems... they'll be down a few at a time... it shouldn't... I don't think so."
p140
sg4
S'hollow'
p141
sg6
I23
sa(dp142
g2
S'Not... at all.'
p143
sg4
S'hollow'
p144
sg6
I3
sa(dp145
g2
S"Oh, it's... I still haven't traced the problem, Commander..."
p146
sg4
S'hollow'
p147
sg6
I9
sa(dp148
g2
S'Oh, yes. Oh, yes, much better. This has been... extremely helpful...  Well, thank-you for your time.'
p149
sg4
S'hollow'
p150
sg6
I16
sa(dp151
g2
S"Okay, it was you. And I couldn't tell you what I wanted to, to your face... and it just sort of... I guess it got out of control."
p152
sg4
S'hollow'
p153
sg6
I28
sa(dp154
g2
S'On what? I mean, should I prepare something...'
p155
sg4
S'hollow'
p156
sg6
I8
sa(dp157
g2
S"Problem? Nossir. I'm... I'm very sorry, sir... it's just... I had a very important communique... it required my immediate response and..."
p158
sg4
S'hollow'
p159
sg6
I21
sa(dp160
g2
S"Really... very helpful... in through the nose, out through the mouth... I'll practice and let you know... thank you again..."
p161
sg4
S'hollow'
p162
sg6
I20
sa(dp163
g2
S'Really?'
p164
sg4
S'hollow'
p165
sg6
I1
sa(dp166
g2
S"Riker, you're nothing but a pretty mannequin dressed up in a fancy uniform. You're full of hot air, and if Picard has a problem with me, he can come and tell me himself..."
p167
sg4
S'hollow'
p168
sg6
I33
sa(dp169
g2
S'Save program.'
p170
sg4
S'hollow'
p171
sg6
I2
sa(dp172
g2
S'Self-taught, my good capitaine. Shall I give you a few lessons?'
p173
sg4
S'hollow'
p174
sg6
I11
sa(dp175
g2
S'So punish me.'
p176
sg4
S'hollow'
p177
sg6
I3
sa(dp178
g2
S'The briefing? Me?'
p179
sg4
S'hollow'
p180
sg6
I3
sa(dp181
g2
S'The tests... uh, showed problems... I mean no problems with the flow... the flow of the...'
p182
sg4
S'hollow'
p183
sg6
I16
sa(dp184
g2
S'There it is...'
p185
sg4
S'hollow'
p186
sg6
I3
sa(dp187
g2
S'This will have to wait, darling.  Um... Be right there.  Freeze program. Exit.'
p188
sg4
S'hollow'
p189
sg6
I13
sa(dp190
g2
S"To... to try and explain the anti-grav unit failure... I still can't... nothing about it makes sense."
p191
sg4
S'hollow'
p192
sg6
I17
sa(dp193
g2
S"Troi? No, no, I couldn't."
p194
sg4
S'hollow'
p195
sg6
I5
sa(dp196
g2
S'Trouble? Why would there be trouble?'
p197
sg4
S'hollow'
p198
sg6
I6
sa(dp199
g2
S'Understood... sir.'
p200
sg4
S'hollow'
p201
sg6
I2
sa(dp202
g2
S'Well, I was just... no, not really... what?'
p203
sg4
S'hollow'
p204
sg6
I8
sa(dp205
g2
S'What are you going to do?'
p206
sg4
S'hollow'
p207
sg6
I6
sa(dp208
g2
S'What if... what if...  what if one of us is the connection?'
p209
sg4
S'hollow'
p210
sg6
I12
sa(dp211
g2
S'Why?'
p212
sg4
S'hollow'
p213
sg6
I1
sa(dp214
g2
S"Yes.  It wasn't a maintenance problem... everything checked out. I... I'm going to check for... a surge in... the transfer coils."
p215
sg4
S'hollow'
p216
sg6
I21
sa(dp217
g2
S"Yes. But she... it wasn't real... really a counselor."
p218
sg4
S'hollow'
p219
sg6
I9
sa(dp220
g2
S'Yes. No.'
p221
sg4
S'hollow'
p222
sg6
I2
sa(dp223
g2
S'You do?'
p224
sg4
S'hollow'
p225
sg6
I2
sa(dp226
g2
S"You don't know... it's hard out there."
p227
sg4
S'hollow'
p228
sg6
I7
sa(dp229
g2
S'You know... the people I create in there have started to become more real to me... than anyone out here.  Except maybe for you, Commander.'
p230
sg4
S'hollow'
p231
sg6
I25
sa(dp232
g2
S'You think so?'
p233
sg4
S'hollow'
p234
sg6
I3
sa(dp235
g2
S"You're right, of course."
p236
sg4
S'hollow'
p237
sg6
I4
sa(dp238
g2
S"You're... you're not going to tell anyone about this?"
p239
sg4
S'hollow'
p240
sg6
I9
sa(dp241
g2
S'"But what the devil is he doing among us?"  Philosopher. Scientist. Poet, musician, duellist -- Here lies Hercule-Savinien De Cyrano de Bergerac.'
p242
sg4
S'nthdegree'
p243
sg6
I22
sa(dp244
g2
S'"Playing" near the Porte de Nesle.'
p245
sg4
S'nthdegree'
p246
sg6
I6
sa(dp247
g2
S'-- I can have it ready in two days.'
p248
sg4
S'nthdegree'
p249
sg6
I9
sa(dp250
g2
S"-- I don't need a counselor. What I need is the company of a charming, intelligent woman."
p251
sg4
S'nthdegree'
p252
sg6
I17
sa(dp253
g2
S'... Now, an iconic display console positioned for right hand.'
p254
sg4
S'nthdegree'
p255
sg6
I10
sa(dp256
g2
S"... to the emitters, yessir, I'm already on it... ready."
p257
sg4
S'nthdegree'
p258
sg6
I10
sa(dp259
g2
S'After... more rehearsals than I can count.'
p260
sg4
S'nthdegree'
p261
sg6
I7
sa(dp262
g2
S'Ah!'
p263
sg4
S'nthdegree'
p264
sg6
I1
sa(dp265
g2
S'Ah!'
p266
sg4
S'nthdegree'
p267
sg6
I1
sa(dp268
g2
S'Ah...'
p269
sg4
S'nthdegree'
p270
sg6
I1
sa(dp271
g2
S'Beautiful!'
p272
sg4
S'nthdegree'
p273
sg6
I1
sa(dp274
g2
S"Because I'm starting to behave a little more like the rest of the crew? With confidence in what I'm doing?"
p275
sg4
S'nthdegree'
p276
sg6
I20
sa(dp277
g2
S'Begin new program. Create as follows: Work station chair.'
p278
sg4
S'nthdegree'
p279
sg6
I9
sa(dp280
g2
S"Brower, increase the intake of liquid Helium Three into the reactor wall. We've got to cool it off."
p281
sg4
S'nthdegree'
p282
sg6
I18
sa(dp283
g2
S'But if this semiset was curved into the subatomic, the infinities might cancel each other out.'
p284
sg4
S'nthdegree'
p285
sg6
I16
sa(dp286
g2
S"Can't do anything from here... I've got to have a better interface..."
p287
sg4
S'nthdegree'
p288
sg6
I12
sa(dp289
g2
S'Checkmate in nine moves.'
p290
sg4
S'nthdegree'
p291
sg6
I4
sa(dp292
g2
S'Commander?'
p293
sg4
S'nthdegree'
p294
sg6
I1
sa(dp295
g2
S'Computer.'
p296
sg4
S'nthdegree'
p297
sg6
I1
sa(dp298
g2
S"Couldn't you use a global mode in your scanner... It would be a lot faster."
p299
sg4
S'nthdegree'
p300
sg6
I15
sa(dp301
g2
S'Create a standard alpha-numeric console positioned for left hand.'
p302
sg4
S'nthdegree'
p303
sg6
I9
sa(dp304
g2
S'Electromagnetic band?'
p305
sg4
S'nthdegree'
p306
sg6
I2
sa(dp307
g2
S"Getting prepared for tomorrow's meeting in Engineering. We're planning our repair strategy."
p308
sg4
S'nthdegree'
p309
sg6
I12
sa(dp310
g2
S'God forbid.'
p311
sg4
S'nthdegree'
p312
sg6
I2
sa(dp313
g2
S"I can still remember doing everything -- I just can't remember how or why."
p314
sg4
S'nthdegree'
p315
sg6
I14
sa(dp316
g2
S"I could set it up for you if you'd like..."
p317
sg4
S'nthdegree'
p318
sg6
I10
sa(dp319
g2
S"I don't agree."
p320
sg4
S'nthdegree'
p321
sg6
I3
sa(dp322
g2
S"I don't."
p323
sg4
S'nthdegree'
p324
sg6
I2
sa(dp325
g2
S'I had some ideas late last night... I needed to consult the computer about some quantum electrodynamic calculations. A holodeck Einstein program seemed like the best way. I guess I went a little overboard.'
p326
sg4
S'nthdegree'
p327
sg6
I34
sa(dp328
g2
S'I promise.'
p329
sg4
S'nthdegree'
p330
sg6
I2
sa(dp331
g2
S"I still don't see how you can incorporate the quantum principle into general relativity without adjusting the cosmological constant a lot more than you're doing here."
p332
sg4
S'nthdegree'
p333
sg6
I26
sa(dp334
g2
S'I still feel more... more comfortable playing somebody else. Maybe all this is no better than escaping into a holodeck fantasy.'
p335
sg4
S'nthdegree'
p336
sg6
I21
sa(dp337
g2
S'I would not have you weep any less for that charming, good, handsome Christien. I only ask this: that as the great cold surrounds my bones, you allow a double meaning to your mourning veil. And when your tears fall for him, some few will be... for me.'
p338
sg4
S'nthdegree'
p339
sg6
I48
sa(dp340
g2
S"I'm not sure if I'm ready for that."
p341
sg4
S'nthdegree'
p342
sg6
I8
sa(dp343
g2
S"I'm picking up visual wavelengths only. Between forty-five... forty-five hundred and seven thousand angstroms."
p344
sg4
S'nthdegree'
p345
sg6
I14
sa(dp346
g2
S"I'm sorry if I overstepped my authority."
p347
sg4
S'nthdegree'
p348
sg6
I7
sa(dp349
g2
S"I'm sorry, Commander.  Thank you, Professor.  End program."
p350
sg4
S'nthdegree'
p351
sg6
I8
sa(dp352
g2
S"I've finally become the person I've always wanted to be. Do we have to ask why?"
p353
sg4
S'nthdegree'
p354
sg6
I16
sa(dp355
g2
S'I... I guess...'
p356
sg4
S'nthdegree'
p357
sg6
I3
sa(dp358
g2
S"I... I think I see what you're saying..."
p359
sg4
S'nthdegree'
p360
sg6
I8
sa(dp361
g2
S'I... we have a very... patient teacher.'
p362
sg4
S'nthdegree'
p363
sg6
I7
sa(dp364
g2
S'If you could assist me in the morning, Commander...'
p365
sg4
S'nthdegree'
p366
sg6
I9
sa(dp367
g2
S'Is that a professional opinion?'
p368
sg4
S'nthdegree'
p369
sg6
I5
sa(dp370
g2
S"It always seems to come back to that, doesn't it.."
p371
sg4
S'nthdegree'
p372
sg6
I10
sa(dp373
g2
S"It's true. I can't explain it. But in the last few days I've found a confidence that I never knew was there."
p374
sg4
S'nthdegree'
p375
sg6
I22
sa(dp376
g2
S'It... it just occurred to me that I could set up a frequency harmonic between the deflector and the shield grid... using the warp field generator as a power flow anti-attenuator and that of course naturally created an amplification of the inherent energy output.'
p377
sg4
S'nthdegree'
p378
sg6
I44
sa(dp379
g2
S'Lieutenant Barclay to Captain Picard. You can fire photon torpedos. Maximum yield, full spread.'
p380
sg4
S'nthdegree'
p381
sg6
I14
sa(dp382
g2
S'May I?'
p383
sg4
S'nthdegree'
p384
sg6
I2
sa(dp385
g2
S"Maybe... you're right."
p386
sg4
S'nthdegree'
p387
sg6
I3
sa(dp388
g2
S'Must you?'
p389
sg4
S'nthdegree'
p390
sg6
I2
sa(dp391
g2
S'No more than a hundred.'
p392
sg4
S'nthdegree'
p393
sg6
I5
sa(dp394
g2
S"No problem. Here's how you build it..."
p395
sg4
S'nthdegree'
p396
sg6
I7
sa(dp397
g2
S'No... Let it go. You tell me what you were going to say. Do you dare?'
p398
sg4
S'nthdegree'
p399
sg6
I16
sa(dp400
g2
S'No... No modulation.'
p401
sg4
S'nthdegree'
p402
sg6
I3
sa(dp403
g2
S'Not entirely. The core memory is still intact. We could program a completely new control system.'
p404
sg4
S'nthdegree'
p405
sg6
I16
sa(dp406
g2
S"Not really. I just never thought along those lines before. It's all pretty evident now... I'm sure if you put your mind to it --"
p407
sg4
S'nthdegree'
p408
sg6
I25
sa(dp409
g2
S'Nothing.'
p410
sg4
S'nthdegree'
p411
sg6
I1
sa(dp412
g2
S'Of course -- Every summer you came to Bergerac!'
p413
sg4
S'nthdegree'
p414
sg6
I9
sa(dp415
g2
S'Of course. Please... Sit down, Counselor.'
p416
sg4
S'nthdegree'
p417
sg6
I6
sa(dp418
g2
S'Oh... I have done better since...'
p419
sg4
S'nthdegree'
p420
sg6
I6
sa(dp421
g2
S'Probably somewhere between twelve hundred and fourteen fifty.'
p422
sg4
S'nthdegree'
p423
sg6
I8
sa(dp424
g2
S'Smaller...'
p425
sg4
S'nthdegree'
p426
sg6
I1
sa(dp427
g2
S'Still no modulation.'
p428
sg4
S'nthdegree'
p429
sg6
I3
sa(dp430
g2
S'Sure...'
p431
sg4
S'nthdegree'
p432
sg6
I1
sa(dp433
g2
S'Thank you, Doctor. Same time day after tomorrow?'
p434
sg4
S'nthdegree'
p435
sg6
I8
sa(dp436
g2
S'Thank... thank you... Counselor...'
p437
sg4
S'nthdegree'
p438
sg6
I4
sa(dp439
g2
S'Thanks for... for assigning me to this mission.'
p440
sg4
S'nthdegree'
p441
sg6
I8
sa(dp442
g2
S'The Cytherians have reintegrated me, sir.'
p443
sg4
S'nthdegree'
p444
sg6
I6
sa(dp445
g2
S'The cells have a... an electromagnetic signature... just like a circuit element does... Conceptually, it should work... with a few adjustments...'
p446
sg4
S'nthdegree'
p447
sg6
I21
sa(dp448
g2
S'The moon -- yes, that will be my home. My paradise. I shall find there, all the souls I love -- Socrates, Galileo...'
p449
sg4
S'nthdegree'
p450
sg6
I23
sa(dp451
g2
S"The probe was designed to instruct outsiders on how to reach this system. But the technologies aren't always compatible. It failed with the Argus computer, and with the computer on the shuttle. But it was able to reprogram... me."
p452
sg4
S'nthdegree'
p453
sg6
I39
sa(dp454
g2
S'Thermal levels up one hundred seventy seven percent. Comparable increase in neutron emissions.'
p455
sg4
S'nthdegree'
p456
sg6
I13
sa(dp457
g2
S'Tie both consoles into the Enterprise main computer core, utilizing a neural scan interface.'
p458
sg4
S'nthdegree'
p459
sg6
I14
sa(dp460
g2
S"Unclear... the interface isn't fast enough."
p461
sg4
S'nthdegree'
p462
sg6
I6
sa(dp463
g2
S'We could repair all the reactors simultaneously instead of one by one.'
p464
sg4
S'nthdegree'
p465
sg6
I12
sa(dp466
g2
S'Well...'
p467
sg4
S'nthdegree'
p468
sg6
I1
sa(dp469
g2
S'With me? Nothing. Just my hand.  He is in the Guards?'
p470
sg4
S'nthdegree'
p471
sg6
I11
sa(dp472
g2
S"Wouldn't you like to take a walk with me through the arboretum? The zalnias should be in bloom..."
p473
sg4
S'nthdegree'
p474
sg6
I18
sa(dp475
g2
S'Yes, but --'
p476
sg4
S'nthdegree'
p477
sg6
I3
sa(dp478
g2
S'Yes.  But our computer is just too slow to direct the repairs; the parameters are changing too quickly for it to keep up.'
p479
sg4
S'nthdegree'
p480
sg6
I23
sa(dp481
g2
S'Yessir.'
p482
sg4
S'nthdegree'
p483
sg6
I1
sa(dp484
g2
S'Yessir. The Cytherians are exploring the galaxy just as we are... The difference is they never leave their home -- they bring others here. They only wish an exchange of knowledge...  They want to know us.'
p485
sg4
S'nthdegree'
p486
sg6
I36
sa(dp487
g2
S'You both have the same mission, Captain...'
p488
sg4
S'nthdegree'
p489
sg6
I7
sa(dp490
g2
S"You don't... don't have to do this, you know..."
p491
sg4
S'nthdegree'
p492
sg6
I9
sa(dp493
g2
S"You shouldn't have to... wait so long for the results..."
p494
sg4
S'nthdegree'
p495
sg6
I10
sa(dp496
g2
S'You think so...'
p497
sg4
S'nthdegree'
p498
sg6
I3
sa(dp499
g2
S"You're a very forgiving audience."
p500
sg4
S'nthdegree'
p501
sg6
I5
sa(dp502
g2
S"You're welcome, Captain. Barclay out."
p503
sg4
S'nthdegree'
p504
sg6
I5
sa(dp505
g2
S'A fluctuation occurred while I was inside the matter stream... ?'
p506
sg4
S'realm'
p507
sg6
I11
sa(dp508
g2
S"Actually, this isn't the first time I've been... apprehensive.  Every single time I've had to do it, I've had a certain feeling of... I guess you could call it...  ... mortal terror."
p509
sg4
S'realm'
p510
sg6
I32
sa(dp511
g2
S'Alright.'
p512
sg4
S'realm'
p513
sg6
I1
sa(dp514
g2
S'At least... I used to...'
p515
sg4
S'realm'
p516
sg6
I5
sa(dp517
g2
S'Aye sir.'
p518
sg4
S'realm'
p519
sg6
I2
sa(dp520
g2
S'Aye sir.'
p521
sg4
S'realm'
p522
sg6
I2
sa(dp523
g2
S'Aye sir.'
p524
sg4
S'realm'
p525
sg6
I2
sa(dp526
g2
S'Aye sir...'
p527
sg4
S'realm'
p528
sg6
I2
sa(dp529
g2
S'Aye sir...'
p530
sg4
S'realm'
p531
sg6
I2
sa(dp532
g2
S"Barclay to Chief O'Brien."
p533
sg4
S'realm'
p534
sg6
I4
sa(dp535
g2
S'Barclay to Enterprise...  One to beam back.'
p536
sg4
S'realm'
p537
sg6
I7
sa(dp538
g2
S'Because... you run the Transporters, and I hate transporters...'
p539
sg4
S'realm'
p540
sg6
I9
sa(dp541
g2
S"But I guess... if I'm ever going to confront my fear, it might as well be now..."
p542
sg4
S'realm'
p543
sg6
I17
sa(dp544
g2
S"But now I know I don't. I know what I saw in there... was real.  I was the only one to experience an ionic fluctuation during transport... maybe that explains why that's why no one else saw it."
p545
sg4
S'realm'
p546
sg6
I38
sa(dp547
g2
S"But... if I'm in the matter stream too long..."
p548
sg4
S'realm'
p549
sg6
I9
sa(dp550
g2
S"But... isn't there a way to... to... to force these things out of me?"
p551
sg4
S'realm'
p552
sg6
I14
sa(dp553
g2
S'But... what I saw was much larger than a microbe...'
p554
sg4
S'realm'
p555
sg6
I10
sa(dp556
g2
S"Calm... stay calm...  Computer -- let's try music... something soothing."
p557
sg4
S'realm'
p558
sg6
I10
sa(dp559
g2
S'Chief...'
p560
sg4
S'realm'
p561
sg6
I1
sa(dp562
g2
S"Chief... I've just... I've been reviewing the transport logs...  What are these... energy variations that keep appearing? There was one when I transported to the science ship... see?"
p563
sg4
S'realm'
p564
sg6
I28
sa(dp565
g2
S'Commander... has anything... strange ever happened to you during transport?'
p566
sg4
S'realm'
p567
sg6
I10
sa(dp568
g2
S'Commander... what if we bridged our Transporter system with theirs? It might be enough to cut through the ionic field.'
p569
sg4
S'realm'
p570
sg6
I20
sa(dp571
g2
S'Computer... access Starfleet Medical Data Base. Tell me about... describe the disorder known as... Transporter Psychosis.'
p572
sg4
S'realm'
p573
sg6
I16
sa(dp574
g2
S'Computer... more birds.'
p575
sg4
S'realm'
p576
sg6
I3
sa(dp577
g2
S'Computer... what is the treatment for Transporter Psychosis?'
p578
sg4
S'realm'
p579
sg6
I8
sa(dp580
g2
S"Counselor, I appreciate your concern... but I'd rather not continue this conversation. I'm... I'm feeling perfectly fine."
p581
sg4
S'realm'
p582
sg6
I17
sa(dp583
g2
S"Either there's something in there... or I'm going crazy. I've got to know.  You can understand that, can't you?"
p584
sg4
S'realm'
p585
sg6
I19
sa(dp586
g2
S'End stress reduction program.'
p587
sg4
S'realm'
p588
sg6
I4
sa(dp589
g2
S'Energize.'
p590
sg4
S'realm'
p591
sg6
I1
sa(dp592
g2
S"Ever since I was a child, I've been scared to death that if I ever dematerialized... I wouldn't come back whole again.  I know it sounds crazy."
p593
sg4
S'realm'
p594
sg6
I27
sa(dp595
g2
S'Field is at maximum limits, sir. But it is holding.'
p596
sg4
S'realm'
p597
sg6
I10
sa(dp598
g2
S'Fine... fine... do what you have to do, Counselor...'
p599
sg4
S'realm'
p600
sg6
I9
sa(dp601
g2
S'Good... good...'
p602
sg4
S'realm'
p603
sg6
I2
sa(dp604
g2
S'Hallucinations? What kind of hallucinations?'
p605
sg4
S'realm'
p606
sg6
I5
sa(dp607
g2
S'How long?'
p608
sg4
S'realm'
p609
sg6
I2
sa(dp610
g2
S"I can still remember the day in Doctor Olafson's class on Transporter Theory when he talked about the body being converted into billions of kiloquads of data... zipping through subspace... and I realized, there's no margin for error. One atom out of place and poof! You never come back...  It's amazing people don't get lost all the time."
p611
sg4
S'realm'
p612
sg6
I58
sa(dp613
g2
S'I do?'
p614
sg4
S'realm'
p615
sg6
I2
sa(dp616
g2
S"I don't care -- just give me water!"
p617
sg4
S'realm'
p618
sg6
I8
sa(dp619
g2
S"I don't know... anything out of the ordinary..."
p620
sg4
S'realm'
p621
sg6
I8
sa(dp622
g2
S"I know what you're going to say, sir. And I realize... I know I've been acting strangely. But you've got to believe me. I wouldn't have called you in here if I weren't absolutely certain."
p623
sg4
S'realm'
p624
sg6
I35
sa(dp625
g2
S'I mean -- have you ever seen anything?'
p626
sg4
S'realm'
p627
sg6
I8
sa(dp628
g2
S'I need to... Commander La Forge wants some tricorder readings of those fluctuations.'
p629
sg4
S'realm'
p630
sg6
I13
sa(dp631
g2
S"I need you to transport me to the science ship... and directly back again. And while I'm in the beam... can you recreate one of those ionic fluctuations... ?"
p632
sg4
S'realm'
p633
sg6
I29
sa(dp634
g2
S'I need your help. Would you meet me in Transporter Room Three... ?'
p635
sg4
S'realm'
p636
sg6
I13
sa(dp637
g2
S"I usually manage to avoid it somehow. You wouldn't believe how many hours I've logged on shuttlecrafts...  The thought of being deconstructed molecule by molecule. It's more than I can stand..."
p638
sg4
S'realm'
p639
sg6
I31
sa(dp640
g2
S'I want you to wake the senior staff.'
p641
sg4
S'realm'
p642
sg6
I8
sa(dp643
g2
S"I was wrong. They checked the Transporter and there wasn't... there was nothing there. I imagined the whole thing."
p644
sg4
S'realm'
p645
sg6
I19
sa(dp646
g2
S"I was... I was having trouble sleeping. I'm just trying to wear myself out. That's a perfectly normal thing to be doing, isn't it?"
p647
sg4
S'realm'
p648
sg6
I24
sa(dp649
g2
S"I'll ask Ensign Dern to join you."
p650
sg4
S'realm'
p651
sg6
I7
sa(dp652
g2
S"I'll do that, sir. Thank you."
p653
sg4
S'realm'
p654
sg6
I6
sa(dp655
g2
S"I'm always nervous. Everyone knows that."
p656
sg4
S'realm'
p657
sg6
I6
sa(dp658
g2
S"I'm giving you an order, Mister O'Brien."
p659
sg4
S'realm'
p660
sg6
I7
sa(dp661
g2
S"I'm going to beam over there. I can do it."
p662
sg4
S'realm'
p663
sg6
I10
sa(dp664
g2
S"I'm not endangering anyone and I wish you would --"
p665
sg4
S'realm'
p666
sg6
I10
sa(dp667
g2
S"I'm sorry -- I can't do this."
p668
sg4
S'realm'
p669
sg6
I7
sa(dp670
g2
S"I'm sure. Please proceed."
p671
sg4
S'realm'
p672
sg6
I4
sa(dp673
g2
S"I've... I've heard about problems... what about... Transporter Psychosis?"
p674
sg4
S'realm'
p675
sg6
I9
sa(dp676
g2
S"If I didn't know so much about these things... maybe they wouldn't scare me so much..."
p677
sg4
S'realm'
p678
sg6
I16
sa(dp679
g2
S'In the... during transport.'
p680
sg4
S'realm'
p681
sg6
I4
sa(dp682
g2
S'Inside me?'
p683
sg4
S'realm'
p684
sg6
I2
sa(dp685
g2
S'Is that what killed him?'
p686
sg4
S'realm'
p687
sg6
I5
sa(dp688
g2
S'It does... how?'
p689
sg4
S'realm'
p690
sg6
I3
sa(dp691
g2
S'It was dark and distorted... and it had what looked like... a mouth...'
p692
sg4
S'realm'
p693
sg6
I13
sa(dp694
g2
S"It's... impossible, isn't it?"
p695
sg4
S'realm'
p696
sg6
I4
sa(dp697
g2
S"It's... she's... very... large."
p698
sg4
S'realm'
p699
sg6
I4
sa(dp700
g2
S'Just fine, sir.'
p701
sg4
S'realm'
p702
sg6
I3
sa(dp703
g2
S'Just water, please.'
p704
sg4
S'realm'
p705
sg6
I3
sa(dp706
g2
S'Just wondering...'
p707
sg4
S'realm'
p708
sg6
I2
sa(dp709
g2
S'Life forms?'
p710
sg4
S'realm'
p711
sg6
I2
sa(dp712
g2
S'Maybe ignorance really is bliss...'
p713
sg4
S'realm'
p714
sg6
I5
sa(dp715
g2
S'Me too, sir.'
p716
sg4
S'realm'
p717
sg6
I3
sa(dp718
g2
S'No problem, sir. I can reconfigure their controller to accept commands from here.'
p719
sg4
S'realm'
p720
sg6
I13
sa(dp721
g2
S'No, I... the Transporter sensors may not be sensitive enough...'
p722
sg4
S'realm'
p723
sg6
I10
sa(dp724
g2
S'No, no, no. We\'ve talked before about confronting my fears. "The best way out is through." You said that once, remember?'
p725
sg4
S'realm'
p726
sg6
I21
sa(dp727
g2
S'No, no... stop. All I need is the... what causes it?'
p728
sg4
S'realm'
p729
sg6
I11
sa(dp730
g2
S'No.'
p731
sg4
S'realm'
p732
sg6
I1
sa(dp733
g2
S'No...'
p734
sg4
S'realm'
p735
sg6
I1
sa(dp736
g2
S'No... thank you.'
p737
sg4
S'realm'
p738
sg6
I3
sa(dp739
g2
S"No... you've done more than enough already, Chief..."
p740
sg4
S'realm'
p741
sg6
I8
sa(dp742
g2
S"Nowhere. I just don't get to these decks very often.  There's Stellar Cartography -- I thought that was on Deck Eleven."
p743
sg4
S'realm'
p744
sg6
I21
sa(dp745
g2
S'Plexing... sounds easy enough...'
p746
sg4
S'realm'
p747
sg6
I4
sa(dp748
g2
S'Plexing?'
p749
sg4
S'realm'
p750
sg6
I1
sa(dp751
g2
S'Right.'
p752
sg4
S'realm'
p753
sg6
I1
sa(dp754
g2
S'Right...'
p755
sg4
S'realm'
p756
sg6
I1
sa(dp757
g2
S"Shouldn't I stay here and set up the remote link?"
p758
sg4
S'realm'
p759
sg6
I10
sa(dp760
g2
S'Sir... Commander La Forge and I were planning to recreate the circumstances of the explosion on the Yosemite... that might give us some answers. Permission to continue with the experiment?'
p761
sg4
S'realm'
p762
sg6
I30
sa(dp763
g2
S"So what's in the box?"
p764
sg4
S'realm'
p765
sg6
I5
sa(dp766
g2
S'So... something did happen to me in the Transporter beam?'
p767
sg4
S'realm'
p768
sg6
I10
sa(dp769
g2
S'Sure...'
p770
sg4
S'realm'
p771
sg6
I1
sa(dp772
g2
S"Suspend me... I don't like the sound of that..."
p773
sg4
S'realm'
p774
sg6
I9
sa(dp775
g2
S'Tell that to Commander La Forge and the rest of the Away Team...'
p776
sg4
S'realm'
p777
sg6
I13
sa(dp778
g2
S'Thanks.'
p779
sg4
S'realm'
p780
sg6
I1
sa(dp781
g2
S'Thanks...'
p782
sg4
S'realm'
p783
sg6
I1
sa(dp784
g2
S"The residual energy from the plasma streamer... it must've amplified the charge in the buffer... enough to keep your patterns from degrading..."
p785
sg4
S'realm'
p786
sg6
I22
sa(dp787
g2
S'Then I saw it again -- just twenty minutes ago. The same exact thing moving around in the Transporter beam.'
p788
sg4
S'realm'
p789
sg6
I20
sa(dp790
g2
S'There are more of them in the beam... you have to grab them and hold on...'
p791
sg4
S'realm'
p792
sg6
I16
sa(dp793
g2
S"There was phased matter all around... at first I thought it was some kind of energy discharge. But then it flew toward me... and touched my arm...  But how could anything be in there... the molecules flying apart... half-phased... it's..."
p794
sg4
S'realm'
p795
sg6
I40
sa(dp796
g2
S"They've never bothered me."
p797
sg4
S'realm'
p798
sg6
I4
sa(dp799
g2
S"This has been the thing I've been afraid of all my life... that I'd go in and not come back..."
p800
sg4
S'realm'
p801
sg6
I20
sa(dp802
g2
S'Um... Chief...'
p803
sg4
S'realm'
p804
sg6
I2
sa(dp805
g2
S'Walking.'
p806
sg4
S'realm'
p807
sg6
I1
sa(dp808
g2
S'Water, ten degrees celsius.'
p809
sg4
S'realm'
p810
sg6
I4
sa(dp811
g2
S'Water.'
p812
sg4
S'realm'
p813
sg6
I1
sa(dp814
g2
S'We could try to reconstitute the data stream.'
p815
sg4
S'realm'
p816
sg6
I8
sa(dp817
g2
S'Well... I thought I was hallucinating. I thought it was... that I had... Transporter Psychosis...'
p818
sg4
S'realm'
p819
sg6
I15
sa(dp820
g2
S'Well... to be honest, I always avoided you.'
p821
sg4
S'realm'
p822
sg6
I8
sa(dp823
g2
S'What are the symptoms?'
p824
sg4
S'realm'
p825
sg6
I4
sa(dp826
g2
S'What do you... what exactly do you mean by a bumpy ride?'
p827
sg4
S'realm'
p828
sg6
I12
sa(dp829
g2
S'What happened?'
p830
sg4
S'realm'
p831
sg6
I2
sa(dp832
g2
S'When I saw there was more than one of them... I thought... maybe the other crew was trying the same thing we were...'
p833
sg4
S'realm'
p834
sg6
I23
sa(dp835
g2
S"When I was returning to the Enterprise... I could've sworn I saw something... in the matter stream."
p836
sg4
S'realm'
p837
sg6
I17
sa(dp838
g2
S'Which caused a plasma explosion similar to the one on the science ship...'
p839
sg4
S'realm'
p840
sg6
I13
sa(dp841
g2
S"Why? My career in Starfleet would be over, that's why."
p842
sg4
S'realm'
p843
sg6
I10
sa(dp844
g2
S'Yeah...'
p845
sg4
S'realm'
p846
sg6
I1
sa(dp847
g2
S'Yes, Doctor.'
p848
sg4
S'realm'
p849
sg6
I2
sa(dp850
g2
S'Yes, but... you realize if these imaging scanners are off by even a thousandth of a percent --'
p851
sg4
S'realm'
p852
sg6
I18
sa(dp853
g2
S'Yes, sir.'
p854
sg4
S'realm'
p855
sg6
I2
sa(dp856
g2
S'Yessir?'
p857
sg4
S'realm'
p858
sg6
I1
sa(dp859
g2
S'You know, I feel better already. I can do this.'
p860
sg4
S'realm'
p861
sg6
I10
sa(dp862
g2
S"You... you're afraid of transporting?"
p863
sg4
S'realm'
p864
sg6
I5
sa(dp865
g2
S'Your... pet spider.'
p866
sg4
S'realm'
p867
sg6
I3
sa(dp868
g2
S'Actually... we have to put them right here...'
p869
sg4
S'ship'
p870
sg6
I8
sa(dp871
g2
S'Ah -- Barclay. Lieutenant Reg Barclay. No, I never have.'
p872
sg4
S'ship'
p873
sg6
I10
sa(dp874
g2
S"Ah... Moriarty... Sherlock Holmes' arch enemy."
p875
sg4
S'ship'
p876
sg6
I6
sa(dp877
g2
S'And he wants to talk to the Captain.'
p878
sg4
S'ship'
p879
sg6
I8
sa(dp880
g2
S'Are you right or left handed?'
p881
sg4
S'ship'
p882
sg6
I6
sa(dp883
g2
S"As far as Moriarty and the Countess know, they're half way to Meles Two by now."
p884
sg4
S'ship'
p885
sg6
I16
sa(dp886
g2
S'Aye, sir.'
p887
sg4
S'ship'
p888
sg6
I2
sa(dp889
g2
S'Barclay to Commander Data...'
p890
sg4
S'ship'
p891
sg6
I4
sa(dp892
g2
S"Commander -- you'll never believe what happened while I was working on your program in the Holodeck... Professor Moriarty appeared -- out of nowhere."
p893
sg4
S'ship'
p894
sg6
I24
sa(dp895
g2
S'Computer, Sherlock Holmes Program Three-A.'
p896
sg4
S'ship'
p897
sg6
I5
sa(dp898
g2
S'Computer, access protected memory and run Moriarty program.'
p899
sg4
S'ship'
p900
sg6
I8
sa(dp901
g2
S'Computer, begin Sherlock Holmes program Three A. Place us in the drawing room at Two Twenty-One B Baker Street.'
p902
sg4
S'ship'
p903
sg6
I19
sa(dp904
g2
S'Computer... end program.'
p905
sg4
S'ship'
p906
sg6
I3
sa(dp907
g2
S'Computer... run a diagnostic on all Sherlock Holmes files and display any anomalous programming sequences.'
p908
sg4
S'ship'
p909
sg6
I15
sa(dp910
g2
S'Computer... unlock this sequence and run the program.'
p911
sg4
S'ship'
p912
sg6
I8
sa(dp913
g2
S'Did you try taking her off the Holodeck?'
p914
sg4
S'ship'
p915
sg6
I8
sa(dp916
g2
S"Even if we decided to do it, there's no guarantee we'd be able to."
p917
sg4
S'ship'
p918
sg6
I14
sa(dp919
g2
S'Hostage... ?'
p920
sg4
S'ship'
p921
sg6
I2
sa(dp922
g2
S'How -- how do you know the Captain?'
p923
sg4
S'ship'
p924
sg6
I8
sa(dp925
g2
S"I can't think of anything else. We've taken the Holodeck apart circuit by circuit. There's nothing there that could account for Moriarty's ability to exist outside the grid."
p926
sg4
S'ship'
p927
sg6
I28
sa(dp928
g2
S"I don't see how that could be possible... maybe there was a fragmentation in the protected memory circuits..."
p929
sg4
S'ship'
p930
sg6
I18
sa(dp931
g2
S'I wonder what would happen if we tried to beam a Holodeck object off the grid?'
p932
sg4
S'ship'
p933
sg6
I16
sa(dp934
g2
S"I'll have to store you in memory again until I get an answer."
p935
sg4
S'ship'
p936
sg6
I13
sa(dp937
g2
S"I'm not so sure that was a good idea..."
p938
sg4
S'ship'
p939
sg6
I9
sa(dp940
g2
S"I'm sorry... let me try again."
p941
sg4
S'ship'
p942
sg6
I6
sa(dp943
g2
S"I'm sure he hasn't forgotten his promise... the Captain wouldn't do that --"
p944
sg4
S'ship'
p945
sg6
I13
sa(dp946
g2
S"I... I'm sure it was."
p947
sg4
S'ship'
p948
sg6
I5
sa(dp949
g2
S"It isn't..."
p950
sg4
S'ship'
p951
sg6
I2
sa(dp952
g2
S'Leave the Holodeck? No, of course not. You can only exist in here.'
p953
sg4
S'ship'
p954
sg6
I13
sa(dp955
g2
S'Looks like about... four years.'
p956
sg4
S'ship'
p957
sg6
I5
sa(dp958
g2
S'No problem there.'
p959
sg4
S'ship'
p960
sg6
I3
sa(dp961
g2
S"Oh, no... no. I'm not here to see anyone. I'm just --  -- delivering these."
p962
sg4
S'ship'
p963
sg6
I15
sa(dp964
g2
S"Oh, no... not at all. It's very simple, really. I need to enhance the molecular pattern of the chair... so the Transporter can get a better lock on the signal."
p965
sg4
S'ship'
p966
sg6
I30
sa(dp967
g2
S"Oh, sorry, Commander... I'm on my way to the... Holodeck..."
p968
sg4
S'ship'
p969
sg6
I10
sa(dp970
g2
S'Protected memory... ? Display those sequences.'
p971
sg4
S'ship'
p972
sg6
I6
sa(dp973
g2
S'So far, so good. This should be the Holodeck on the real Enterprise.'
p974
sg4
S'ship'
p975
sg6
I13
sa(dp976
g2
S'Standing by...'
p977
sg4
S'ship'
p978
sg6
I2
sa(dp979
g2
S"That's not possible."
p980
sg4
S'ship'
p981
sg6
I3
sa(dp982
g2
S"There must be a glitch in the matrix diodes. But I'll track it down, don't worry."
p983
sg4
S'ship'
p984
sg6
I16
sa(dp985
g2
S'This enhancement module contains enough active memory to provide them with a lifetime of experiences.'
p986
sg4
S'ship'
p987
sg6
I15
sa(dp988
g2
S'Unless...  ... unless we could find a way to compensate for the phase variance. If we could modify the pattern enhancers, we just might do it.'
p989
sg4
S'ship'
p990
sg6
I26
sa(dp991
g2
S'We have run into alien species that can manipulate matter through mental processes...'
p992
sg4
S'ship'
p993
sg6
I13
sa(dp994
g2
S"We're going to try transporting this chair, first. We don't want to try it on the Countess until we're sure it will work."
p995
sg4
S'ship'
p996
sg6
I23
sa(dp997
g2
S'Well, I can ask --'
p998
sg4
S'ship'
p999
sg6
I5
sa(dp1000
g2
S"Well... it has to do with...  It's nothing you have to worry about, Countess."
p1001
sg4
S'ship'
p1002
sg6
I14
sa(dp1003
g2
S"What are you talking about? You couldn't have been aware of the passage of time --"
p1004
sg4
S'ship'
p1005
sg6
I16
sa(dp1006
g2
S'Who are you... ?'
p1007
sg4
S'ship'
p1008
sg6
I4
sa(dp1009
g2
S'You know... you know what you are...'
p1010
sg4
S'ship'
p1011
sg6
I7
sa(dp1012
g2
S"You... know about that? Where we are? Countess... forgive me... but you don't sound like a Holodeck character."
p1013
sg4
S'ship'
p1014
sg6
I18
sa(dp1015
g2
S'You... you gave her consciousness?'
p1016
sg4
S'ship'
p1017
sg6
I5
sa(dp1018
g2
S'You... you know about that? You understand about -- the real world?'
p1019
sg4
S'ship'
p1020
sg6
I12
sa.