(lp0
(dp1
S'text'
p2
S'Auto-destruct will detonate in four minutes and fifty-nine seconds... four minutes and fifty-eight seconds... four minutes and fifty-seven seconds...'
p3
sS'episode'
p4
S'11001001'
p5
sS'word_count'
p6
I19
sa(dp7
g2
S'Does the first officer concur?'
p8
sg4
S'11001001'
p9
sg6
I5
sa(dp10
g2
S'Era?'
p11
sg4
S'11001001'
p12
sg6
I1
sa(dp13
g2
S'Estimate release of antimatter in four minutes eighteen seconds -- seventeen seconds -- sixteen seconds...'
p14
sg4
S'11001001'
p15
sg6
I15
sa(dp16
g2
S'Location.'
p17
sg4
S'11001001'
p18
sg6
I1
sa(dp19
g2
S'Program complete. Enter when ready.'
p20
sg4
S'11001001'
p21
sg6
I5
sa(dp22
g2
S'Program entered - you may enter the Holodeck.'
p23
sg4
S'11001001'
p24
sg6
I8
sa(dp25
g2
S'Recognize Picard, Jean-Luc, Captain...  Recognize Riker, William T, Commander.'
p26
sg4
S'11001001'
p27
sg6
I9
sa(dp28
g2
S'Specify.'
p29
sg4
S'11001001'
p30
sg6
I1
sa(dp31
g2
S"Unoccupied sections are being closed down in order to clear space in the main computer banks. It's necessary to facilitate the system upgrade. Full power can be restored if needed."
p32
sg4
S'11001001'
p33
sg6
I30
sa(dp34
g2
S'Captain Picard is in Transporter Room Three.'
p35
sg4
S'battle'
p36
sg6
I7
sa(dp37
g2
S'New information. Captain Picard is no longer aboard the Enterprise.'
p38
sg4
S'battle'
p39
sg6
I10
sa(dp40
g2
S'Shields in place.'
p41
sg4
S'battle'
p42
sg6
I3
sa(dp43
g2
S'Access denied. Personal logs are restricted.'
p44
sg4
S'boobytrap'
p45
sg6
I6
sa(dp46
g2
S'Enter when ready.'
p47
sg4
S'boobytrap'
p48
sg6
I3
sa(dp49
g2
S'Captain Picard, priority message from security officer, Klingon vessel Patakt...'
p50
sg4
S'defector'
p51
sg6
I10
sa(dp52
g2
S'Captain Picard, priority one message from Starfleet coming in on secured channel.'
p53
sg4
S'defector'
p54
sg6
I12
sa(dp55
g2
S'Temperature?'
p56
sg4
S'defector'
p57
sg6
I1
sa(dp58
g2
S'This system is calibrated to the Celsius metric system.'
p59
sg4
S'defector'
p60
sg6
I9
sa(dp61
g2
S'Two hours, twenty-two minute delay from time of transmission at Starfleet Command on Lya Three.'
p62
sg4
S'defector'
p63
sg6
I15
sa(dp64
g2
S'Signal patterns indicate intelligence. Unable to derive necessary referants to establish translation matrix.'
p65
sg4
S'dejaq'
p66
sg6
I13
sa(dp67
g2
S'Program loaded.'
p68
sg4
S'family'
p69
sg6
I2
sa(dp70
g2
S'The detention cell is vacant at this time.'
p71
sg4
S'hunted'
p72
sg6
I8
sa(dp73
g2
S'Affirmative. With an increasing probability of error, reaching ninety-five percent after ten seconds.'
p74
sg4
S'identity'
p75
sg6
I13
sa(dp76
g2
S'Please restate question.'
p77
sg4
S'identity'
p78
sg6
I3
sa(dp79
g2
S'Unknown.'
p80
sg4
S'identity'
p81
sg6
I1
sa(dp82
g2
S'Affirmative. Erasure process is proceeding.'
p83
sg4
S'mindseye'
p84
sg6
I5
sa(dp85
g2
S'Emission is not consistent with any known radiation.'
p86
sg4
S'perspective'
p87
sg6
I8
sa(dp88
g2
S'A research inquiry from the Manitoba Journal of Interplanetary Psychology and three communiques from your mother...'
p89
sg4
S'price'
p90
sg6
I16
sa(dp91
g2
S'DaiMon Goss departed the Enterprise at fourteen hundred hours.'
p92
sg4
S'price'
p93
sg6
I9
sa(dp94
g2
S'Define "real" in context, please.'
p95
sg4
S'price'
p96
sg6
I5
sa(dp97
g2
S'Devinoni Ral, human, age forty-one, born Brussels, European Alliance, relocated at age nineteen to Hurkos Three, a non-aligned planet...'
p98
sg4
S'price'
p99
sg6
I19
sa(dp100
g2
S'Do you wish to override program?'
p101
sg4
S'price'
p102
sg6
I6
sa(dp103
g2
S'This unit is programmed to provide sources of nutritional value. Your request does not fall within current guidelines.'
p104
sg4
S'price'
p105
sg6
I18
sa(dp106
g2
S'Captain Picard is in Ten-Forward.'
p107
sg4
S'qwho'
p108
sg6
I5
sa(dp109
g2
S'The captain is not on the ship.'
p110
sg4
S'qwho'
p111
sg6
I7
sa(dp112
g2
S'That information is not available.'
p113
sg4
S'rememberme'
p114
sg6
I5
sa(dp115
g2
S'Auto-destruct will detonate in four minutes and fifty-nine seconds... four minutes and fifty-eight seconds... four minutes and fifty-seven seconds...'
p116
sg4
S'shades'
p117
sg6
I19
sa(dp118
g2
S'Does the first officer concur?'
p119
sg4
S'shades'
p120
sg6
I5
sa(dp121
g2
S'Recognize Picard, Jean-Luc, Captain...  Recognize Riker, William T., Commander.'
p122
sg4
S'shades'
p123
sg6
I9
sa(dp124
g2
S'Clan affiliation is not within provided records.'
p125
sg4
S'vengeance'
p126
sg6
I7
sa.