(lp0
(dp1
S'text'
p2
S'"We?" Meaning you and me? Have we met, Mister...'
p3
sS'episode'
p4
S'arrow'
p5
sS'word_count'
p6
I9
sa(dp7
g2
S"... we didn't."
p8
sg4
S'arrow'
p9
sg6
I3
sa(dp10
g2
S"And if the Earth isn't alone... If there are millions of inhabited planets in the Heavens..."
p11
sg4
S'arrow'
p12
sg6
I16
sa(dp13
g2
S'Are you going along?'
p14
sg4
S'arrow'
p15
sg6
I4
sa(dp16
g2
S"But it's a highly delicate affair. A few molecules off and the vapor point crashes. Poof. It's gone. All of it."
p17
sg4
S'arrow'
p18
sg6
I21
sa(dp19
g2
S"Captain. You didn't have to come to me. I would've been happy to go to you."
p20
sg4
S'arrow'
p21
sg6
I16
sa(dp22
g2
S'Die?'
p23
sg4
S'arrow'
p24
sg6
I1
sa(dp25
g2
S"Don't be so sure."
p26
sg4
S'arrow'
p27
sg6
I4
sa(dp28
g2
S'Full circle.'
p29
sg4
S'arrow'
p30
sg6
I2
sa(dp31
g2
S"I hear you're sending an away team down to the surface."
p32
sg4
S'arrow'
p33
sg6
I11
sa(dp34
g2
S"I mean... if you don't go on this mission..."
p35
sg4
S'arrow'
p36
sg6
I9
sa(dp37
g2
S"I've certainly done my share of travelling. What ship?"
p38
sg4
S'arrow'
p39
sg6
I9
sa(dp40
g2
S'Is that a clipper ship?'
p41
sg4
S'arrow'
p42
sg6
I5
sa(dp43
g2
S'Is this some kind of a joke?'
p44
sg4
S'arrow'
p45
sg6
I7
sa(dp46
g2
S"It's a Tzartak aperitif. Very, very touchy."
p47
sg4
S'arrow'
p48
sg6
I7
sa(dp49
g2
S"Let me guess. My father sent you. Well, you tell him I've still got a lot more listening to do --"
p50
sg4
S'arrow'
p51
sg6
I21
sa(dp52
g2
S"Maybe it's an unusual away mission."
p53
sg4
S'arrow'
p54
sg6
I6
sa(dp55
g2
S"Mister Clemens, why do I suspect you're not one of them?"
p56
sg4
S'arrow'
p57
sg6
I11
sa(dp58
g2
S'Mister Data. Of course.  Excuse us, but we have so much to catch up on...'
p59
sg4
S'arrow'
p60
sg6
I15
sa(dp61
g2
S"No, you don't look like the joking type."
p62
sg4
S'arrow'
p63
sg6
I8
sa(dp64
g2
S'Perhaps a great deal more.'
p65
sg4
S'arrow'
p66
sg6
I5
sa(dp67
g2
S'Please do.'
p68
sg4
S'arrow'
p69
sg6
I2
sa(dp70
g2
S'Somebody getting married?'
p71
sg4
S'arrow'
p72
sg6
I3
sa(dp73
g2
S"Starfleet captains usually don't accompany away teams..."
p74
sg4
S'arrow'
p75
sg6
I7
sa(dp76
g2
S'That way, the moment the liquid touches the tongue, it evaporates. The flavor is carried entirely by the vapor.'
p77
sg4
S'arrow'
p78
sg6
I19
sa(dp79
g2
S"That's why the Enterprise was sent back to Earth... I didn't realize..."
p80
sg4
S'arrow'
p81
sg6
I12
sa(dp82
g2
S'The trick is to change the evaporation point of the main ingredient. You want the temperature where the liquid goes to vapor to be half a degree below the body temperature of your customer.'
p83
sg4
S'arrow'
p84
sg6
I34
sa(dp85
g2
S'Then again, someone might say a diamond is still a diamond -- even if it is one among millions. It still shines as brightly.'
p86
sg4
S'arrow'
p87
sg6
I24
sa(dp88
g2
S'This time you have to...'
p89
sg4
S'arrow'
p90
sg6
I5
sa(dp91
g2
S'Why do you need my help?'
p92
sg4
S'arrow'
p93
sg6
I6
sa(dp94
g2
S'You just... do.'
p95
sg4
S'arrow'
p96
sg6
I3
sa(dp97
g2
S'You remember when we first met?'
p98
sg4
S'arrow'
p99
sg6
I6
sa(dp100
g2
S"... so when I finally got to the Head Surveyor... I found the location of your cavern. But you won't be able to get to it."
p101
sg4
S'arrow2'
p102
sg6
I26
sa(dp103
g2
S'...thirsty...'
p104
sg4
S'arrow2'
p105
sg6
I1
sa(dp106
g2
S"...wait... stay a while... maybe they'll come for you..."
p107
sg4
S'arrow2'
p108
sg6
I9
sa(dp109
g2
S"But... I have to wait... almost five hundred years...  And when we meet... I won't be able to tell you about this, will I?"
p110
sg4
S'arrow2'
p111
sg6
I24
sa(dp112
g2
S'Clemens.'
p113
sg4
S'arrow2'
p114
sg6
I1
sa(dp115
g2
S"Data... so far I've been able to do everything you asked me to. But do you really expect me to get you into a high-security military installation?"
p116
sg4
S'arrow2'
p117
sg6
I27
sa(dp118
g2
S'Do I know you?'
p119
sg4
S'arrow2'
p120
sg6
I4
sa(dp121
g2
S"General Mallory is usually a stickler for the rules... but I happen to know that his wife thinks she's a singer. So I told him she simply must perform at my next gathering... and the rules just... disappeared."
p122
sg4
S'arrow2'
p123
sg6
I38
sa(dp124
g2
S"He's been driving me crazy. He watches the house, follows me down the street asking questions -- I'd bet you anything he got in here and took your -- whatever you said."
p125
sg4
S'arrow2'
p126
sg6
I32
sa(dp127
g2
S'History has to fulfill itself. Even Picard knew that.'
p128
sg4
S'arrow2'
p129
sg6
I9
sa(dp130
g2
S'I keep telling you, there is no plot --'
p131
sg4
S'arrow2'
p132
sg6
I9
sa(dp133
g2
S"I'll see you in five hundred years, Picard."
p134
sg4
S'arrow2'
p135
sg6
I8
sa(dp136
g2
S"If I tell you what happened in that cavern, it would affect any decision you're about to make. I can't do that. I won't do that."
p137
sg4
S'arrow2'
p138
sg6
I26
sa(dp139
g2
S"Mister Clemens, I think we've had quite enough of this. Mister Data's business is his own, and I'd thank you to leave."
p140
sg4
S'arrow2'
p141
sg6
I22
sa(dp142
g2
S'Mister Clemens... shame on you.'
p143
sg4
S'arrow2'
p144
sg6
I5
sa(dp145
g2
S'The only entrance is a mine shaft... right in the middle of the Presidio... the Army Fort.'
p146
sg4
S'arrow2'
p147
sg6
I17
sa(dp148
g2
S'There you are! I have good news -- we can get into the Presidio --'
p149
sg4
S'arrow2'
p150
sg6
I15
sa(dp151
g2
S"There's been a blood feud between two branches of the family. He doesn't acknowledge me."
p152
sg4
S'arrow2'
p153
sg6
I15
sa(dp154
g2
S'We... become friends...'
p155
sg4
S'arrow2'
p156
sg6
I3
sa(dp157
g2
S'Well... this is more interesting than giving tea dances.'
p158
sg4
S'arrow2'
p159
sg6
I9
sa(dp160
g2
S'What happened... ?'
p161
sg4
S'arrow2'
p162
sg6
I3
sa(dp163
g2
S'What?'
p164
sg4
S'arrow2'
p165
sg6
I1
sa(dp166
g2
S'What?'
p167
sg4
S'arrow2'
p168
sg6
I1
sa(dp169
g2
S"Where'd... everybody go... ?"
p170
sg4
S'arrow2'
p171
sg6
I4
sa(dp172
g2
S"Whoa... everything's spinning..."
p173
sg4
S'arrow2'
p174
sg6
I3
sa(dp175
g2
S'Yes.'
p176
sg4
S'arrow2'
p177
sg6
I1
sa(dp178
g2
S'You know me...'
p179
sg4
S'arrow2'
p180
sg6
I3
sa(dp181
g2
S'You know... so much about me...'
p182
sg4
S'arrow2'
p183
sg6
I6
sa(dp184
g2
S'You stayed here... for that... ?'
p185
sg4
S'arrow2'
p186
sg6
I6
sa(dp187
g2
S"You're still here..."
p188
sg4
S'arrow2'
p189
sg6
I3
sa(dp190
g2
S'Always room at the bar for another broken heart.'
p191
sg4
S'boobytrap'
p192
sg6
I9
sa(dp193
g2
S'Exactly.'
p194
sg4
S'boobytrap'
p195
sg6
I1
sa(dp196
g2
S'His head.'
p197
sg4
S'boobytrap'
p198
sg6
I2
sa(dp199
g2
S'I never noticed... as a woman.'
p200
sg4
S'boobytrap'
p201
sg6
I6
sa(dp202
g2
S"I'm taking care of myself these days."
p203
sg4
S'boobytrap'
p204
sg6
I7
sa(dp205
g2
S'Maybe because a bald man was very kind to me once... when I was hurting. Took care of me.'
p206
sg4
S'boobytrap'
p207
sg6
I19
sa(dp208
g2
S'Me personally?'
p209
sg4
S'boobytrap'
p210
sg6
I2
sa(dp211
g2
S"No, his head. I'm attracted to bald men."
p212
sg4
S'boobytrap'
p213
sg6
I8
sa(dp214
g2
S"No, you're different."
p215
sg4
S'boobytrap'
p216
sg6
I3
sa(dp217
g2
S'No.'
p218
sg4
S'boobytrap'
p219
sg6
I1
sa(dp220
g2
S'Seriously.'
p221
sg4
S'boobytrap'
p222
sg6
I1
sa(dp223
g2
S'Yes, I can tell you that.'
p224
sg4
S'boobytrap'
p225
sg6
I6
sa(dp226
g2
S'Yes.'
p227
sg4
S'boobytrap'
p228
sg6
I1
sa(dp229
g2
S'You ever consider doing it without a program?'
p230
sg4
S'boobytrap'
p231
sg6
I8
sa(dp232
g2
S"You're a pilot... Try flying without instruments for a change... you might surprise yourself."
p233
sg4
S'boobytrap'
p234
sg6
I14
sa(dp235
g2
S'And you, Picard, do you expect this battle to be won?'
p236
sg4
S'bothworlds'
p237
sg6
I11
sa(dp238
g2
S'Before a hopeless battle, if I remember the tradition correctly.'
p239
sg4
S'bothworlds'
p240
sg6
I10
sa(dp241
g2
S"But Nelson didn't come home from Trafalgar, did he?"
p242
sg4
S'bothworlds'
p243
sg6
I9
sa(dp244
g2
S'It is not the end.'
p245
sg4
S'bothworlds'
p246
sg6
I5
sa(dp247
g2
S'With experience. When the Borg destroyed my world, my people scattered throughout the universe. But we survived. And so will humanity. As long as there is a handful left to keep the spirit alive. You will prevail. Even if it takes a millennium.'
p248
sg4
S'bothworlds'
p249
sg6
I43
sa(dp250
g2
S'You start on Friday -- two shows a night, matinee on Wednesday.'
p251
sg4
S'bothworlds'
p252
sg6
I12
sa(dp253
g2
S'And the Borg know everything he knows...'
p254
sg4
S'bothworlds2'
p255
sg6
I7
sa(dp256
g2
S'Did he ever tell you why we were so close?'
p257
sg4
S'bothworlds2'
p258
sg6
I10
sa(dp259
g2
S"I hope I'm not imposing."
p260
sg4
S'bothworlds2'
p261
sg6
I5
sa(dp262
g2
S"I've heard a lot of people talking down in Ten Forward... They expect to be dead in the next day or two."
p263
sg4
S'bothworlds2'
p264
sg6
I22
sa(dp265
g2
S'May I speak to you, Captain?'
p266
sg4
S'bothworlds2'
p267
sg6
I6
sa(dp268
g2
S"Picard and I used to talk... now and again, when one of us needed to... I guess I'm just used to having the Captain's ear..."
p269
sg4
S'bothworlds2'
p270
sg6
I25
sa(dp271
g2
S"The way I see things, if a man is convinced he's gonna die tomorrow, he'll probably find some way to make it happen.  The only one who can turn that around... is you."
p272
sg4
S'bothworlds2'
p273
sg6
I33
sa(dp274
g2
S"Then I'm not going to tell you either. But it was beyond friendship, beyond family... and I will let him go. You must, too.  There can only be one Captain."
p275
sg4
S'bothworlds2'
p276
sg6
I30
sa(dp277
g2
S"Then, it's time to throw the book away.  You must let him go, Riker. It's the only way to beat him... the only way to save him."
p278
sg4
S'bothworlds2'
p279
sg6
I27
sa(dp280
g2
S"They like you, Riker. They trust you. But they don't believe anyone can save them."
p281
sg4
S'bothworlds2'
p282
sg6
I15
sa(dp283
g2
S'This chair is yours.'
p284
sg4
S'bothworlds2'
p285
sg6
I4
sa(dp286
g2
S'You tried to kill whatever that is on the Borg ship. Not Picard. Picard is still here, still in the room with us.'
p287
sg4
S'bothworlds2'
p288
sg6
I23
sa(dp289
g2
S"You'll have to do something you don't want to do.  Let go of Picard."
p290
sg4
S'bothworlds2'
p291
sg6
I14
sa(dp292
g2
S'Can I get you something?'
p293
sg4
S'child'
p294
sg6
I5
sa(dp295
g2
S'Captain.'
p296
sg4
S'child'
p297
sg6
I1
sa(dp298
g2
S"Even if it's not what you really want?"
p299
sg4
S'child'
p300
sg6
I8
sa(dp301
g2
S'How about a cup of nectar direct from Prometheus?'
p302
sg4
S'child'
p303
sg6
I9
sa(dp304
g2
S'How about some nice Mareuvian Tea?'
p305
sg4
S'child'
p306
sg6
I6
sa(dp307
g2
S"I don't blame you -- it's beautiful."
p308
sg4
S'child'
p309
sg6
I7
sa(dp310
g2
S"I'll bet they are."
p311
sg4
S'child'
p312
sg6
I4
sa(dp313
g2
S"It's what I'm expected to do. Don't you always do what's expected?"
p314
sg4
S'child'
p315
sg6
I12
sa(dp316
g2
S"No, I don't mean that. I mean when you look there don't you see your future?"
p317
sg4
S'child'
p318
sg6
I16
sa(dp319
g2
S'No. I never met the captain until I came onboard.'
p320
sg4
S'child'
p321
sg6
I10
sa(dp322
g2
S'Oh?'
p323
sg4
S'child'
p324
sg6
I1
sa(dp325
g2
S'Sure I do... all the time.'
p326
sg4
S'child'
p327
sg6
I6
sa(dp328
g2
S"That's true. But sometimes the game is to know when to consider yourself more than others and to give yourself permission to be... selfish."
p329
sg4
S'child'
p330
sg6
I24
sa(dp331
g2
S"That's why I'm here."
p332
sg4
S'child'
p333
sg6
I4
sa(dp334
g2
S"There's nothing like a dish of Delovian souffle."
p335
sg4
S'child'
p336
sg6
I8
sa(dp337
g2
S'What do you see when you look out there?'
p338
sg4
S'child'
p339
sg6
I9
sa(dp340
g2
S'Where do they say?'
p341
sg4
S'child'
p342
sg6
I4
sa(dp343
g2
S"You're going to be leaving soon."
p344
sg4
S'child'
p345
sg6
I6
sa(dp346
g2
S'But is it more than you hoped?'
p347
sg4
S'dauphin'
p348
sg6
I7
sa(dp349
g2
S'But you were afraid.'
p350
sg4
S'dauphin'
p351
sg6
I4
sa(dp352
g2
S"Careful, if you place me too high on a pedestal, you won't be able to reach me."
p353
sg4
S'dauphin'
p354
sg6
I17
sa(dp355
g2
S'Dreams can be dangerous.'
p356
sg4
S'dauphin'
p357
sg6
I4
sa(dp358
g2
S"I didn't say that. There's nothing wrong with a line. It's like a knock on the door."
p359
sg4
S'dauphin'
p360
sg6
I17
sa(dp361
g2
S'I know that sensation.'
p362
sg4
S'dauphin'
p363
sg6
I4
sa(dp364
g2
S"I'm not sending you away."
p365
sg4
S'dauphin'
p366
sg6
I5
sa(dp367
g2
S"It isn't supposed to."
p368
sg4
S'dauphin'
p369
sg6
I4
sa(dp370
g2
S"Just because a girl runs out, doesn't mean she's not hoping you'll follow."
p371
sg4
S'dauphin'
p372
sg6
I13
sa(dp373
g2
S"Maybe I do think it's a line."
p374
sg4
S'dauphin'
p375
sg6
I7
sa(dp376
g2
S'Me too.'
p377
sg4
S'dauphin'
p378
sg6
I2
sa(dp379
g2
S'Of me?'
p380
sg4
S'dauphin'
p381
sg6
I2
sa(dp382
g2
S'Oh, there will be others -- but, the next time you feel love will be different. Each time is different.'
p383
sg4
S'dauphin'
p384
sg6
I20
sa(dp385
g2
S'Shut up, kid.  Now tell me more about my eyes.'
p386
sg4
S'dauphin'
p387
sg6
I10
sa(dp388
g2
S'Tell her about her eyes.'
p389
sg4
S'dauphin'
p390
sg6
I5
sa(dp391
g2
S'That seems simple enough.'
p392
sg4
S'dauphin'
p393
sg6
I4
sa(dp394
g2
S'Yes it would.'
p395
sg4
S'dauphin'
p396
sg6
I3
sa(dp397
g2
S"You won't find a better dish of chocolate on Thalos or Daled Four."
p398
sg4
S'dauphin'
p399
sg6
I13
sa(dp400
g2
S"You're right."
p401
sg4
S'dauphin'
p402
sg6
I2
sa(dp403
g2
S'... terrorizing one race after another... teasing them like helpless animals... delighting at the fear of your victims...'
p404
sg4
S'dejaq'
p405
sg6
I18
sa(dp406
g2
S"Begging. You're a pitiful excuse for a human and the only way you're going to survive is by the charity of others."
p407
sg4
S'dejaq'
p408
sg6
I22
sa(dp409
g2
S'Calamarain...'
p410
sg4
S'dejaq'
p411
sg6
I1
sa(dp412
g2
S'Get used to it, Q.'
p413
sg4
S'dejaq'
p414
sg6
I5
sa(dp415
g2
S"He's human."
p416
sg4
S'dejaq'
p417
sg6
I2
sa(dp418
g2
S'How the mighty have fallen.'
p419
sg4
S'dejaq'
p420
sg6
I5
sa(dp421
g2
S'I heard you were drummed out of the continuum.'
p422
sg4
S'dejaq'
p423
sg6
I9
sa(dp424
g2
S'Is that right?'
p425
sg4
S'dejaq'
p426
sg6
I3
sa(dp427
g2
S'It must be frightening... totally defenseless... after being omnipotent all those centuries...'
p428
sg4
S'dejaq'
p429
sg6
I12
sa(dp430
g2
S'Just one of the boys, huh?'
p431
sg4
S'dejaq'
p432
sg6
I6
sa(dp433
g2
S'You could learn a few things from this one.'
p434
sg4
S'dejaq'
p435
sg6
I9
sa(dp436
g2
S'"Truth", "beauty"... works for a lot of things.'
p437
sg4
S'ensignro'
p438
sg6
I8
sa(dp439
g2
S'Am I disturbing you?'
p440
sg4
S'ensignro'
p441
sg6
I4
sa(dp442
g2
S'Ensign Ro has some things to talk to you about.'
p443
sg4
S'ensignro'
p444
sg6
I10
sa(dp445
g2
S"Everyone's talking about you."
p446
sg4
S'ensignro'
p447
sg6
I4
sa(dp448
g2
S"For people like you and me... who lose our homes... that's how life feels sometimes..."
p449
sg4
S'ensignro'
p450
sg6
I15
sa(dp451
g2
S'Good. You look like someone who wants to be disturbed.'
p452
sg4
S'ensignro'
p453
sg6
I10
sa(dp454
g2
S'Guinan. I keep the bar. I listen.'
p455
sg4
S'ensignro'
p456
sg6
I7
sa(dp457
g2
S'Guinan. I tend the bar. I listen.'
p458
sg4
S'ensignro'
p459
sg6
I7
sa(dp460
g2
S"Heard you'd been grounded."
p461
sg4
S'ensignro'
p462
sg6
I4
sa(dp463
g2
S'I was in serious trouble once. More than I could handle alone.'
p464
sg4
S'ensignro'
p465
sg6
I12
sa(dp466
g2
S"I've always found that truth is in the eye of the beholder."
p467
sg4
S'ensignro'
p468
sg6
I12
sa(dp469
g2
S"If you wanted to be alone, you would've stayed in your quarters. Only reason to come here is to be around people."
p470
sg4
S'ensignro'
p471
sg6
I22
sa(dp472
g2
S'Including yourself.'
p473
sg4
S'ensignro'
p474
sg6
I2
sa(dp475
g2
S'My people lost their homeworld too.'
p476
sg4
S'ensignro'
p477
sg6
I6
sa(dp478
g2
S'Never know until you try.'
p479
sg4
S'ensignro'
p480
sg6
I5
sa(dp481
g2
S"No you wouldn't."
p482
sg4
S'ensignro'
p483
sg6
I3
sa(dp484
g2
S"Not important now. Not yet. What is important is that I'd still be caught up in it to this day... if I hadn't trusted one man..."
p485
sg4
S'ensignro'
p486
sg6
I26
sa(dp487
g2
S'Really.'
p488
sg4
S'ensignro'
p489
sg6
I1
sa(dp490
g2
S"She can go right back to her quarters when she's done."
p491
sg4
S'ensignro'
p492
sg6
I11
sa(dp493
g2
S"She's my friend."
p494
sg4
S'ensignro'
p495
sg6
I3
sa(dp496
g2
S'So what do you feel like talking about?'
p497
sg4
S'ensignro'
p498
sg6
I8
sa(dp499
g2
S'So you sit alone in crowded rooms staring at your drink.'
p500
sg4
S'ensignro'
p501
sg6
I11
sa(dp502
g2
S"Sounds like someone I'd like to meet."
p503
sg4
S'ensignro'
p504
sg6
I7
sa(dp505
g2
S'Sure you do.'
p506
sg4
S'ensignro'
p507
sg6
I3
sa(dp508
g2
S"The captain obviously thought she'd be valuable on this mission."
p509
sg4
S'ensignro'
p510
sg6
I10
sa(dp511
g2
S"They say you never told anyone the truth about Galon Two. You didn't even defend yourself at the court martial."
p512
sg4
S'ensignro'
p513
sg6
I20
sa(dp514
g2
S'Too late. You just made one.'
p515
sg4
S'ensignro'
p516
sg6
I6
sa(dp517
g2
S'Uh-huh.'
p518
sg4
S'ensignro'
p519
sg6
I1
sa(dp520
g2
S"You go out of your way to torture yourself... You work so hard at it, you've gotta love it."
p521
sg4
S'ensignro'
p522
sg6
I19
sa(dp523
g2
S"You kind of enjoy it, don't you?"
p524
sg4
S'ensignro'
p525
sg6
I7
sa(dp526
g2
S"You're not like any Starfleet officer I ever met.  This might be the start of an interesting friendship."
p527
sg4
S'ensignro'
p528
sg6
I18
sa(dp529
g2
S"You're one of those people who's got their poles reversed... you take a little unscrambling, but I've had a lot of practice."
p530
sg4
S'ensignro'
p531
sg6
I22
sa(dp532
g2
S"You've been looking at your drink all night. How's the view?"
p533
sg4
S'ensignro'
p534
sg6
I11
sa(dp535
g2
S'Your fault.'
p536
sg4
S'ensignro'
p537
sg6
I2
sa(dp538
g2
S'A doctor once said the very same thing to me... what was his name... Frankenstein, I think.'
p539
sg4
S'evolution'
p540
sg6
I17
sa(dp541
g2
S'A lot.'
p542
sg4
S'evolution'
p543
sg6
I2
sa(dp544
g2
S"A mother shapes her child in ways she doesn't even realize. Sometimes just by listening."
p545
sg4
S'evolution'
p546
sg6
I15
sa(dp547
g2
S'Almost.'
p548
sg4
S'evolution'
p549
sg6
I1
sa(dp550
g2
S'Are you trying to say some nanites are on the loose?'
p551
sg4
S'evolution'
p552
sg6
I11
sa(dp553
g2
S'Cute couple.'
p554
sg4
S'evolution'
p555
sg6
I2
sa(dp556
g2
S"He wouldn't listen."
p557
sg4
S'evolution'
p558
sg6
I3
sa(dp559
g2
S'I run a clean place here.'
p560
sg4
S'evolution'
p561
sg6
I6
sa(dp562
g2
S"I've never been very good at being confined to quarters. Any of my husbands would testify to that."
p563
sg4
S'evolution'
p564
sg6
I18
sa(dp565
g2
S'Just one.'
p566
sg4
S'evolution'
p567
sg6
I2
sa(dp568
g2
S'Not in a species of listeners.'
p569
sg4
S'evolution'
p570
sg6
I6
sa(dp571
g2
S'Pull up a stool, Wesley.'
p572
sg4
S'evolution'
p573
sg6
I5
sa(dp574
g2
S'So did Doctor Frankenstein.'
p575
sg4
S'evolution'
p576
sg6
I4
sa(dp577
g2
S"Well, it's taken a few hundred years or so but I've brought him around."
p578
sg4
S'evolution'
p579
sg6
I14
sa(dp580
g2
S"Wesley...  Think you'll get a good grade?"
p581
sg4
S'evolution'
p582
sg6
I7
sa(dp583
g2
S'What are these things?'
p584
sg4
S'evolution'
p585
sg6
I4
sa(dp586
g2
S'You made a better nanite.'
p587
sg4
S'evolution'
p588
sg6
I5
sa(dp589
g2
S'A lot of parents could learn a few things from the two of you...'
p590
sg4
S'family'
p591
sg6
I14
sa(dp592
g2
S"Guinan. I've been wanting to ask you something."
p593
sg4
S'family'
p594
sg6
I8
sa(dp595
g2
S'How come you never gave him prune juice?'
p596
sg4
S'family'
p597
sg6
I8
sa(dp598
g2
S"Maybe a part of him believes that. But there's another part of him I've seen... the part that drinks prune juice... and comes here to the window... when he looks out for home, he doesn't look toward the Klingon Empire. He's looking toward you."
p599
sg4
S'family'
p600
sg6
I44
sa(dp601
g2
S"They all look for that one star, the one they call home... doesn't matter how far away it is... everyone still looks.  You're Worf's parents?"
p602
sg4
S'family'
p603
sg6
I25
sa(dp604
g2
S"Worf... he never had prune juice until he came in here... now he can't get enough of it..."
p605
sg4
S'family'
p606
sg6
I18
sa(dp607
g2
S"You don't think so? Look at him now... I think that's pretty special..."
p608
sg4
S'family'
p609
sg6
I13
sa(dp610
g2
S'You ought to write a book.'
p611
sg4
S'family'
p612
sg6
I6
sa(dp613
g2
S'Computer problem, huh...'
p614
sg4
S'galaxy'
p615
sg6
I3
sa(dp616
g2
S'Here you had this perfectly wonderful fantasy... and now the real Leah comes along and ruins it.'
p617
sg4
S'galaxy'
p618
sg6
I17
sa(dp619
g2
S'Maybe it was your old VISOR...'
p620
sg4
S'galaxy'
p621
sg6
I6
sa(dp622
g2
S'Not what you hoped for, huh?'
p623
sg4
S'galaxy'
p624
sg6
I6
sa(dp625
g2
S'Really? I figured you were wearing the one that lets you see what you want to see.'
p626
sg4
S'galaxy'
p627
sg6
I17
sa(dp628
g2
S'So... you met a computer-simulated female...'
p629
sg4
S'galaxy'
p630
sg6
I6
sa(dp631
g2
S'Take a hard look through your VISOR, La Forge... see her for who she really is... not what you want her to be.'
p632
sg4
S'galaxy'
p633
sg6
I23
sa(dp634
g2
S'The VISOR you wore on the holodeck with her.'
p635
sg4
S'galaxy'
p636
sg6
I9
sa(dp637
g2
S'Uh-huh...'
p638
sg4
S'galaxy'
p639
sg6
I1
sa(dp640
g2
S'We all fall in love with our fantasies, from time to time, La Forge...'
p641
sg4
S'galaxy'
p642
sg6
I14
sa(dp643
g2
S'Yes...'
p644
sg4
S'galaxy'
p645
sg6
I1
sa(dp646
g2
S'You saw exactly what you wanted to see in the holodeck... Sure, the computer made it look like her, added personality... but when it came to your relationship together, you filled in the blanks...'
p647
sg4
S'galaxy'
p648
sg6
I34
sa(dp649
g2
S"You're gonna wear that uniform out if you keep swatting at it..."
p650
sg4
S'galaxy'
p651
sg6
I12
sa(dp652
g2
S'Are you kidding? He was the only member of the family with a sense of humor. But no one ever stayed around him long enough to realize it... except me. My mother says I take after him. I probably do. Because the idea of "fitting in" repels me, too.'
p653
sg4
S'hollow'
p654
sg6
I49
sa(dp655
g2
S'Are you sure?'
p656
sg4
S'hollow'
p657
sg6
I3
sa(dp658
g2
S'Get it yourself.'
p659
sg4
S'hollow'
p660
sg6
I3
sa(dp661
g2
S"He's imaginative."
p662
sg4
S'hollow'
p663
sg6
I2
sa(dp664
g2
S"He's not much for talking."
p665
sg4
S'hollow'
p666
sg6
I5
sa(dp667
g2
S'I give him his warm milk and let him be.'
p668
sg4
S'hollow'
p669
sg6
I10
sa(dp670
g2
S'I just do.'
p671
sg4
S'hollow'
p672
sg6
I3
sa(dp673
g2
S"If I had the feeling that nobody wanted to be around me, I'd probably be late and nervous too."
p674
sg4
S'hollow'
p675
sg6
I19
sa(dp676
g2
S"Not that I've seen."
p677
sg4
S'hollow'
p678
sg6
I4
sa(dp679
g2
S"Reminds me of Terkim. My mother's brother. A kind of family misfit. Everybody told me to stay away from him. Bad influence."
p680
sg4
S'hollow'
p681
sg6
I22
sa(dp682
g2
S'Terkim.'
p683
sg4
S'hollow'
p684
sg6
I1
sa(dp685
g2
S"Warm milk helps you sleep, La Forge. You should try it. What's that got to do with Barclay?"
p686
sg4
S'hollow'
p687
sg6
I18
sa(dp688
g2
S"Yes, I know him... comes in here, stands at the bar, doesn't say much... always orders a warm milk."
p689
sg4
S'hollow'
p690
sg6
I19
sa(dp691
g2
S"You engineering types don't appreciate imagination... ?"
p692
sg4
S'hollow'
p693
sg6
I7
sa(dp694
g2
S'About the Borg...'
p695
sg4
S'iborg'
p696
sg6
I3
sa(dp697
g2
S"And if I hold it too high, you lunge under it. Let's face it -- you're just better at this than I am."
p698
sg4
S'iborg'
p699
sg6
I23
sa(dp700
g2
S'And then... I found myself standing there, staring at him. Curiosity, I figured... just curiosity.'
p701
sg4
S'iborg'
p702
sg6
I15
sa(dp703
g2
S"Aren't you just a bit surprised by him?"
p704
sg4
S'iborg'
p705
sg6
I8
sa(dp706
g2
S"But thanks to you, there aren't many of us. We're scattered around the galaxy... we have no home... we don't even have each other."
p707
sg4
S'iborg'
p708
sg6
I24
sa(dp709
g2
S'Fine. But unless you talk to him -- at least once -- you might find that decision harder to live with than you realize.'
p710
sg4
S'iborg'
p711
sg6
I24
sa(dp712
g2
S'How so?'
p713
sg4
S'iborg'
p714
sg6
I2
sa(dp715
g2
S'Hugh?'
p716
sg4
S'iborg'
p717
sg6
I1
sa(dp718
g2
S"I don't know what made me go see him. La Forge told me I should, but I said no."
p719
sg4
S'iborg'
p720
sg6
I19
sa(dp721
g2
S"I don't think I like this sport."
p722
sg4
S'iborg'
p723
sg6
I7
sa(dp724
g2
S'I hear they gave you a name.'
p725
sg4
S'iborg'
p726
sg6
I7
sa(dp727
g2
S'I hear we have a guest on board.'
p728
sg4
S'iborg'
p729
sg6
I8
sa(dp730
g2
S'I know. But... when you talk to him... face to face... can you honestly say you have no doubts?'
p731
sg4
S'iborg'
p732
sg6
I19
sa(dp733
g2
S"I thought I understood you, Picard. But I don't understand this."
p734
sg4
S'iborg'
p735
sg6
I11
sa(dp736
g2
S'I was thinking about how you said my foil was dipping the other day... maybe I should do some exercises... build up a little strength in my arm...'
p737
sg4
S'iborg'
p738
sg6
I28
sa(dp739
g2
S"I wouldn't have anything to say."
p740
sg4
S'iborg'
p741
sg6
I6
sa(dp742
g2
S"I've got news for you. It isn't. Some of my ancestors resisted the Borg, when you came to assimilate us. A few escaped."
p743
sg4
S'iborg'
p744
sg6
I23
sa(dp745
g2
S"If you're going to use this person --"
p746
sg4
S'iborg'
p747
sg6
I8
sa(dp748
g2
S"If you're going to use this person to destroy his race, don't you think you should look him in the eye once before you do it?  Besides... I'm not so sure he is Borg anymore."
p749
sg4
S'iborg'
p750
sg6
I35
sa(dp751
g2
S'Is that wise?'
p752
sg4
S'iborg'
p753
sg6
I3
sa(dp754
g2
S"La Forge gave it to him. His name's Hugh. And he's lonely."
p755
sg4
S'iborg'
p756
sg6
I12
sa(dp757
g2
S"No -- I think I'm asking you to persuade me."
p758
sg4
S'iborg'
p759
sg6
I10
sa(dp760
g2
S"No, I don't wish. But that's what you people do."
p761
sg4
S'iborg'
p762
sg6
I10
sa(dp763
g2
S'No, thanks.'
p764
sg4
S'iborg'
p765
sg6
I2
sa(dp766
g2
S'No...'
p767
sg4
S'iborg'
p768
sg6
I1
sa(dp769
g2
S'Not to mention tending bar...'
p770
sg4
S'iborg'
p771
sg6
I5
sa(dp772
g2
S'Okay, so now you have a Borg named Hugh...'
p773
sg4
S'iborg'
p774
sg6
I9
sa(dp775
g2
S"Picard... I want to hear you say that you're sure -- that what you're doing is right."
p776
sg4
S'iborg'
p777
sg6
I17
sa(dp778
g2
S'Resistance is futile. Right?'
p779
sg4
S'iborg'
p780
sg6
I4
sa(dp781
g2
S"They'll be coming, you know that. You, of all people, know that."
p782
sg4
S'iborg'
p783
sg6
I12
sa(dp784
g2
S'This "kid\'s" big brothers are going to hunt us down. They won\'t rest until they have him back. And they\'ll destroy us in the process -- without any of this soul-searching you\'re going through.'
p785
sg4
S'iborg'
p786
sg6
I34
sa(dp787
g2
S"Well... you don't look so tough."
p788
sg4
S'iborg'
p789
sg6
I6
sa(dp790
g2
S"Well? Aren't you going to tell me I have to be assimilated?"
p791
sg4
S'iborg'
p792
sg6
I12
sa(dp793
g2
S'What... ?'
p794
sg4
S'iborg'
p795
sg6
I2
sa(dp796
g2
S'Why not?'
p797
sg4
S'iborg'
p798
sg6
I2
sa(dp799
g2
S'Yes. Did you know he has a name?'
p800
sg4
S'iborg'
p801
sg6
I8
sa(dp802
g2
S'You felt sorry for me. Look what it got you.'
p803
sg4
S'iborg'
p804
sg6
I10
sa(dp805
g2
S'You named a Borg...'
p806
sg4
S'iborg'
p807
sg6
I4
sa(dp808
g2
S"You sure? Looks like you're all set for a quiet evening."
p809
sg4
S'iborg'
p810
sg6
I11
sa(dp811
g2
S"You're the second person today that's talked about this Borg as if he were a lost child..."
p812
sg4
S'iborg'
p813
sg6
I17
sa(dp814
g2
S"All the time. When I get scared... or confused... or I need help. The way I see it, you don't ever have to lose your imaginary friend."
p815
sg4
S'imaginary'
p816
sg6
I27
sa(dp817
g2
S"But the best thing about it was that I could curl up and lie on its furry stomach. It had the deepest, softest purr you've ever heard... it put me to sleep every night...  That razor beast was a good friend."
p818
sg4
S'imaginary'
p819
sg6
I41
sa(dp820
g2
S'But?'
p821
sg4
S'imaginary'
p822
sg6
I1
sa(dp823
g2
S'Hello there. Are you looking for someone?'
p824
sg4
S'imaginary'
p825
sg6
I7
sa(dp826
g2
S'How about two glasses of Papalla juice... with extra bubbles.'
p827
sg4
S'imaginary'
p828
sg6
I10
sa(dp829
g2
S'How so?'
p830
sg4
S'imaginary'
p831
sg6
I2
sa(dp832
g2
S"I don't know about that. I was just telling Clara about my imaginary friend."
p833
sg4
S'imaginary'
p834
sg6
I14
sa(dp835
g2
S'I see... a Samarian coral fish... with its fins unfolded...'
p836
sg4
S'imaginary'
p837
sg6
I10
sa(dp838
g2
S"I think someone's lost her way..."
p839
sg4
S'imaginary'
p840
sg6
I6
sa(dp841
g2
S'I was just talking with Clara and Isabella.'
p842
sg4
S'imaginary'
p843
sg6
I8
sa(dp844
g2
S'It was a Tarcassian razor beast. It had dark brown fur, gold eyes... huge spiny wings... It could fly so fast that no one could see it... except me.'
p845
sg4
S'imaginary'
p846
sg6
I29
sa(dp847
g2
S'It was... especially when it smiled.'
p848
sg4
S'imaginary'
p849
sg6
I6
sa(dp850
g2
S"It wasn't a he."
p851
sg4
S'imaginary'
p852
sg6
I4
sa(dp853
g2
S"It wasn't a she."
p854
sg4
S'imaginary'
p855
sg6
I4
sa(dp856
g2
S'Let me guess... about a little girl and her imaginary friend.'
p857
sg4
S'imaginary'
p858
sg6
I11
sa(dp859
g2
S'Maybe because when I was your age, I had an invisible friend, too.'
p860
sg4
S'imaginary'
p861
sg6
I13
sa(dp862
g2
S'No... first it was a fish... now I see a Mintonian sailing ship...'
p863
sg4
S'imaginary'
p864
sg6
I13
sa(dp865
g2
S'Oh, no?'
p866
sg4
S'imaginary'
p867
sg6
I2
sa(dp868
g2
S'Oh... like figuring out how much fuel it takes to power this ship... or deciding whether to explore one star system or another... arranging schedules, making lists, counting inventory, or... wondering if little girls should go to bed at seven... or be allowed to stay up till eight.'
p869
sg4
S'imaginary'
p870
sg6
I48
sa(dp871
g2
S'One juice...'
p872
sg4
S'imaginary'
p873
sg6
I2
sa(dp874
g2
S"Over the years, its body kind of faded away. What was left was more of an idea than a thing.  I don't talk to it nearly as much as I used to."
p875
sg4
S'imaginary'
p876
sg6
I32
sa(dp877
g2
S'Right there -- see how the two swirls come up to form a mast...'
p878
sg4
S'imaginary'
p879
sg6
I14
sa(dp880
g2
S'See you later, Clara... Isabella.'
p881
sg4
S'imaginary'
p882
sg6
I5
sa(dp883
g2
S'Something wrong with the cake?'
p884
sg4
S'imaginary'
p885
sg6
I5
sa(dp886
g2
S"Sometimes grown-ups have a tough time believing in things they can't see."
p887
sg4
S'imaginary'
p888
sg6
I12
sa(dp889
g2
S"Their heads can get so full... that there's no room left for the things you and I know are important. Like invisible friends."
p890
sg4
S'imaginary'
p891
sg6
I23
sa(dp892
g2
S"Well, ordinarily you're supposed to be here with a grown-up... but since you've brought Isabella, you can be my guest."
p893
sg4
S'imaginary'
p894
sg6
I20
sa(dp895
g2
S'Well... they tend to get very preoccupied with grown-up things.'
p896
sg4
S'imaginary'
p897
sg6
I10
sa(dp898
g2
S"When I see you with a piece of chocolate cake... that hasn't been touched... either the cake's no good -- or something's bothering you."
p899
sg4
S'imaginary'
p900
sg6
I24
sa(dp901
g2
S'Yeah -- a Tarcassian razor beast. It protected me. I knew nothing could ever hurt me as long as I had that razor beast around.'
p902
sg4
S'imaginary'
p903
sg6
I25
sa(dp904
g2
S'And then?'
p905
sg4
S'intheory'
p906
sg6
I2
sa(dp907
g2
S'But what do you think of her personally?  Do you like her?'
p908
sg4
S'intheory'
p909
sg6
I12
sa(dp910
g2
S'Hi, Data. Want to try something new?'
p911
sg4
S'intheory'
p912
sg6
I7
sa(dp913
g2
S"I know, I know. You have no emotions.  What I mean is, what's going on in there?  What did it make you think about?"
p914
sg4
S'intheory'
p915
sg6
I24
sa(dp916
g2
S"If I didn't know you better, I'd say you were... preoccupied."
p917
sg4
S'intheory'
p918
sg6
I11
sa(dp919
g2
S'It sounds like the next step is up to you.  So what are you gonna do about it?'
p920
sg4
S'intheory'
p921
sg6
I18
sa(dp922
g2
S"No, no. I mean, this time I don't have any advice to give. You can't tell someone how to handle their first love affair. They have to find a way to do that themselves."
p923
sg4
S'intheory'
p924
sg6
I34
sa(dp925
g2
S'Really?  How did it make you feel?'
p926
sg4
S'intheory'
p927
sg6
I7
sa(dp928
g2
S'Then this should be a very unique experience.'
p929
sg4
S'intheory'
p930
sg6
I8
sa(dp931
g2
S"This is a concoction I heard about on Prakal Two. I think it's great, but I want another opinion, so..."
p932
sg4
S'intheory'
p933
sg6
I20
sa(dp934
g2
S'Too sweet, huh?'
p935
sg4
S'intheory'
p936
sg6
I3
sa(dp937
g2
S"Well, don't look at me."
p938
sg4
S'intheory'
p939
sg6
I5
sa(dp940
g2
S"You're just a starry-eyed romantic, aren't you?  What do you think of her?"
p941
sg4
S'intheory'
p942
sg6
I13
sa(dp943
g2
S'Are you?'
p944
sg4
S'loss'
p945
sg6
I2
sa(dp946
g2
S'Care for a little tea?'
p947
sg4
S'loss'
p948
sg6
I5
sa(dp949
g2
S"Good. I get tired of listening to everybody's problems anyway. They come in here looking for a shoulder to cry on... it's always my shoulder for some reason..."
p950
sg4
S'loss'
p951
sg6
I28
sa(dp952
g2
S"Have I given you any reason to believe I'm not serious?"
p953
sg4
S'loss'
p954
sg6
I11
sa(dp955
g2
S'I can do that.'
p956
sg4
S'loss'
p957
sg6
I4
sa(dp958
g2
S'I can do that.'
p959
sg4
S'loss'
p960
sg6
I4
sa(dp961
g2
S"I didn't mean to startle you."
p962
sg4
S'loss'
p963
sg6
I6
sa(dp964
g2
S'Interesting.'
p965
sg4
S'loss'
p966
sg6
I1
sa(dp967
g2
S'Then how can you know?  Your empathic abilities come back?'
p968
sg4
S'loss'
p969
sg6
I10
sa(dp970
g2
S'Too bad.  Better hours.'
p971
sg4
S'loss'
p972
sg6
I4
sa(dp973
g2
S"Well, they're starting to line up... it's been nice..."
p974
sg4
S'loss'
p975
sg6
I9
sa(dp976
g2
S"Who said anything about 'easy'? It's even harder than you think... human intuition and instinct -- they're not always right."
p977
sg4
S'loss'
p978
sg6
I20
sa(dp979
g2
S'Why do you say that?'
p980
sg4
S'loss'
p981
sg6
I5
sa(dp982
g2
S"You don't happen to know if that ship's counselor position is still open... ?"
p983
sg4
S'loss'
p984
sg6
I14
sa(dp985
g2
S'You know, I always thought so myself. Maybe I ought talk to Picard, what do you think?'
p986
sg4
S'loss'
p987
sg6
I17
sa(dp988
g2
S'You want to talk about it?'
p989
sg4
S'loss'
p990
sg6
I6
sa(dp991
g2
S'You were just being human...'
p992
sg4
S'loss'
p993
sg6
I5
sa(dp994
g2
S"You're leaving. With no counselor on board, there's gonna be a line at the bar... and it's not like I make a percentage on the drinks I sell... I'd just as soon have the nice office, you know?"
p995
sg4
S'loss'
p996
sg6
I38
sa(dp997
g2
S'All those future Datas risking their lives for the people who created them.'
p998
sg4
S'measure'
p999
sg6
I13
sa(dp1000
g2
S"Emotions. They're such slippery, contradictory things. It's a wonder any of us ever crawled out of the oceans, or swung down out of the trees."
p1001
sg4
S'measure'
p1002
sg6
I25
sa(dp1003
g2
S'Good luck, sir.'
p1004
sg4
S'measure'
p1005
sg6
I3
sa(dp1006
g2
S'Having implications for the future.'
p1007
sg4
S'measure'
p1008
sg6
I5
sa(dp1009
g2
S'I had heard a lot about you before I joined the Enterprise. About how Picard was a man who never knew when to lie down and admit he was beat.'
p1010
sg4
S'measure'
p1011
sg6
I30
sa(dp1012
g2
S'If Commander Maddox is successful in disassembling and reassembling Data, what has he gained?'
p1013
sg4
S'measure'
p1014
sg6
I14
sa(dp1015
g2
S'There is an ancient word for it -- slavery.'
p1016
sg4
S'measure'
p1017
sg6
I9
sa(dp1018
g2
S'To do what?'
p1019
sg4
S'measure'
p1020
sg6
I3
sa(dp1021
g2
S'Unfortunately the past always resonates in the present, and decisions made today reach into the future.'
p1022
sg4
S'measure'
p1023
sg6
I16
sa(dp1024
g2
S'What is it that lies between you?'
p1025
sg4
S'measure'
p1026
sg6
I7
sa(dp1027
g2
S'You should get some sleep.'
p1028
sg4
S'measure'
p1029
sg6
I5
sa(dp1030
g2
S'Coming up.'
p1031
sg4
S'night'
p1032
sg6
I2
sa(dp1033
g2
S'Hold it.'
p1034
sg4
S'night'
p1035
sg6
I2
sa(dp1036
g2
S"I'm not feeling so good myself... in fact, I'm real irritable... so I hope nobody's got the idea they're going through this door. Because they'll have to go through me first."
p1037
sg4
S'night'
p1038
sg6
I31
sa(dp1039
g2
S"It's a little souvenir I picked up on Magus Three..."
p1040
sg4
S'night'
p1041
sg6
I10
sa(dp1042
g2
S'Security to Ten-Forward... right away.'
p1043
sg4
S'night'
p1044
sg6
I5
sa(dp1045
g2
S"That's setting number one.  Now...  ... anybody want to see number two?"
p1046
sg4
S'night'
p1047
sg6
I12
sa(dp1048
g2
S"What's that supposed to mean?"
p1049
sg4
S'night'
p1050
sg6
I5
sa(dp1051
g2
S'You can all relax... Ten Forward is a designated shelter area.'
p1052
sg4
S'night'
p1053
sg6
I11
sa(dp1054
g2
S"You couldn't be more wrong..."
p1055
sg4
S'night'
p1056
sg6
I5
sa(dp1057
g2
S'"I\'ve"... ?'
p1058
sg4
S'offspring'
p1059
sg6
I2
sa(dp1060
g2
S"Come now, Admiral, I'm sure you've been in a few bars in your day..."
p1061
sg4
S'offspring'
p1062
sg6
I14
sa(dp1063
g2
S'Hello, Commander. Lal, how are you?'
p1064
sg4
S'offspring'
p1065
sg6
I6
sa(dp1066
g2
S'How much do you know about food and beverages?'
p1067
sg4
S'offspring'
p1068
sg6
I9
sa(dp1069
g2
S'It shows affection. Humans like to touch each other. They start with the hands and move on from there.'
p1070
sg4
S'offspring'
p1071
sg6
I19
sa(dp1072
g2
S"It's called flirting."
p1073
sg4
S'offspring'
p1074
sg6
I3
sa(dp1075
g2
S'Lal, put him down...'
p1076
sg4
S'offspring'
p1077
sg6
I4
sa(dp1078
g2
S"Lal, there are some things your dad'll have to tell you... when he thinks you're ready."
p1079
sg4
S'offspring'
p1080
sg6
I16
sa(dp1081
g2
S"No, they're touching lips. Kissing."
p1082
sg4
S'offspring'
p1083
sg6
I5
sa(dp1084
g2
S"She spills a few drinks like the rest of us. But she's learning a lot."
p1085
sg4
S'offspring'
p1086
sg6
I15
sa(dp1087
g2
S'Sort of a work-study program...'
p1088
sg4
S'offspring'
p1089
sg6
I5
sa(dp1090
g2
S"Well, they're both thinking the same thing if that's what you mean."
p1091
sg4
S'offspring'
p1092
sg6
I12
sa(dp1093
g2
S"What'd did you just say..."
p1094
sg4
S'offspring'
p1095
sg6
I5
sa(dp1096
g2
S"You said I've instead of I have."
p1097
sg4
S'offspring'
p1098
sg6
I7
sa(dp1099
g2
S"You're hired. The most important part of this job is listening... People need a friendly ear to talk to... Happens to be my specialty... There's an art to it and I'll teach it to you, Lal."
p1100
sg4
S'offspring'
p1101
sg6
I36
sa(dp1102
g2
S"You've come to the right place, Lal. There are all sorts of human behavior in here."
p1103
sg4
S'offspring'
p1104
sg6
I16
sa(dp1105
g2
S"A lot of things are contagious. Most of them aren't funny either."
p1106
sg4
S'okona'
p1107
sg6
I12
sa(dp1108
g2
S"All I said was I agree with Okona that you never smile or laugh. At least I've never seen you do it.  Do you? Ever?"
p1109
sg4
S'okona'
p1110
sg6
I25
sa(dp1111
g2
S'Bring new jokes...'
p1112
sg4
S'okona'
p1113
sg6
I3
sa(dp1114
g2
S'Forget it. Try another joke.'
p1115
sg4
S'okona'
p1116
sg6
I5
sa(dp1117
g2
S'I can see that.'
p1118
sg4
S'okona'
p1119
sg6
I4
sa(dp1120
g2
S"I've used it before. Everybody else at least smiles. It's you, Data."
p1121
sg4
S'okona'
p1122
sg6
I12
sa(dp1123
g2
S'It was funny.'
p1124
sg4
S'okona'
p1125
sg6
I3
sa(dp1126
g2
S'It\'s not a "had to." Even Captain Picard can\'t order you to be happy.'
p1127
sg4
S'okona'
p1128
sg6
I14
sa(dp1129
g2
S'Maybe with some new material.'
p1130
sg4
S'okona'
p1131
sg6
I5
sa(dp1132
g2
S'Me, I\'m "no one" and "nobody." It wasn\'t funny.'
p1133
sg4
S'okona'
p1134
sg6
I9
sa(dp1135
g2
S'Never mind that. Let me tell you one about the traveling salesman.'
p1136
sg4
S'okona'
p1137
sg6
I12
sa(dp1138
g2
S'Okona is right.'
p1139
sg4
S'okona'
p1140
sg6
I3
sa(dp1141
g2
S"That joke has been funny for over four hundred years.  We'll now have a minute's silence for its passing."
p1142
sg4
S'okona'
p1143
sg6
I19
sa(dp1144
g2
S"When most people have trouble, they look to a more intelligent and learned being for assistance.  In your case, I'd suggest you go to a bigger computer."
p1145
sg4
S'okona'
p1146
sg6
I27
sa(dp1147
g2
S'Whoa, slow down. Now Data, there\'s just you and me here and nobody is going to know what we talked about. My job here places me under some obligations, like a vow of secrecy. I can\'t repeat anything I hear or see. Now the obligation of the patron is to tell the truth, otherwise I\'m being placed under a commitment to keep a secret about "nothing." That\'s not fair. It\'s called wasted honor. You understand?'
p1148
sg4
S'okona'
p1149
sg6
I75
sa(dp1150
g2
S"You mean when he tells a joke.  That's it, isn't it? You don't have any idea what a joke is."
p1151
sg4
S'okona'
p1152
sg6
I20
sa(dp1153
g2
S'You sure you made a living doing this?'
p1154
sg4
S'okona'
p1155
sg6
I8
sa(dp1156
g2
S'Bridge, this is Ten-Forward.'
p1157
sg4
S'qwho'
p1158
sg6
I4
sa(dp1159
g2
S'Can I get you something?'
p1160
sg4
S'qwho'
p1161
sg6
I5
sa(dp1162
g2
S'I am so sorry, Captain.'
p1163
sg4
S'qwho'
p1164
sg6
I5
sa(dp1165
g2
S"I don't know."
p1166
sg4
S'qwho'
p1167
sg6
I3
sa(dp1168
g2
S'I only know bits and pieces.'
p1169
sg4
S'qwho'
p1170
sg6
I6
sa(dp1171
g2
S"I was not personally invloved, but -- from what I have been told they came through our system like a storm of Jaradan Aser beatles -- and by the time they left, there wasn't much left of our society."
p1172
sg4
S'qwho'
p1173
sg6
I39
sa(dp1174
g2
S"I'm here. I can see the other ship."
p1175
sg4
S'qwho'
p1176
sg6
I8
sa(dp1177
g2
S"I'm... I'm not certain. Just a feeling -- something that happened once before. Probably nothing.  Please forget I called. Ten- Forward out."
p1178
sg4
S'qwho'
p1179
sg6
I22
sa(dp1180
g2
S"I've never felt the need. Is everything alright?"
p1181
sg4
S'qwho'
p1182
sg6
I8
sa(dp1183
g2
S'Is there... anything... unusual happening?'
p1184
sg4
S'qwho'
p1185
sg6
I5
sa(dp1186
g2
S"It's not my business but I wouldn't go over there if I were you."
p1187
sg4
S'qwho'
p1188
sg6
I14
sa(dp1189
g2
S'Meaning?'
p1190
sg4
S'qwho'
p1191
sg6
I1
sa(dp1192
g2
S'None other.'
p1193
sg4
S'qwho'
p1194
sg6
I2
sa(dp1195
g2
S'Not all of the Q are like this one. Some are almost respectable.'
p1196
sg4
S'qwho'
p1197
sg6
I13
sa(dp1198
g2
S"Only that if I were you, I'd start back right now."
p1199
sg4
S'qwho'
p1200
sg6
I11
sa(dp1201
g2
S"Q -- don't do this!"
p1202
sg4
S'qwho'
p1203
sg6
I5
sa(dp1204
g2
S"Q has set a series of events in motion. Your contact with the Borg came long before it should. When you're ready, it might be possible to establish a relationship with them, but now -- now, you are only raw material to them. And since they are aware of your existence..."
p1205
sg4
S'qwho'
p1206
sg6
I51
sa(dp1207
g2
S'They are a mixture of organic and artificial life that has been developed over a thousand centuries.'
p1208
sg4
S'qwho'
p1209
sg6
I17
sa(dp1210
g2
S"They never do that as individuals. It's just not their way. When they decide to come, they will come in force. They do nothing piecemeal."
p1211
sg4
S'qwho'
p1212
sg6
I25
sa(dp1213
g2
S"They will learn -- adapt. That's their great advantage."
p1214
sg4
S'qwho'
p1215
sg6
I9
sa(dp1216
g2
S'We had some dealings.'
p1217
sg4
S'qwho'
p1218
sg6
I4
sa(dp1219
g2
S'What?'
p1220
sg4
S'qwho'
p1221
sg6
I1
sa(dp1222
g2
S'Yes.'
p1223
sg4
S'qwho'
p1224
sg6
I1
sa(dp1225
g2
S'Yes.'
p1226
sg4
S'qwho'
p1227
sg6
I1
sa(dp1228
g2
S'Yes. My people encountered them a century ago. Our cities were destroyed -- our people scattered across the galaxy. They are called the Borg -- protect yourself or they will destroy you.'
p1229
sg4
S'qwho'
p1230
sg6
I32
sa(dp1231
g2
S'You can depend on it.'
p1232
sg4
S'qwho'
p1233
sg6
I5
sa(dp1234
g2
S"You don't, at least to my knowledge nobody has so far."
p1235
sg4
S'qwho'
p1236
sg6
I11
sa(dp1237
g2
S'Mmmm-hmmmm.'
p1238
sg4
S'rascals'
p1239
sg6
I1
sa(dp1240
g2
S"Only if you're ready."
p1241
sg4
S'rascals'
p1242
sg6
I4
sa(dp1243
g2
S"So's my father."
p1244
sg4
S'rascals'
p1245
sg6
I3
sa(dp1246
g2
S'So... you went to one of the most beautiful planets in this quadrant and spent your entire shore leave... in a cave.'
p1247
sg4
S'rascals'
p1248
sg6
I22
sa(dp1249
g2
S"That's the wonderful thing about crayons... when you're a child, they can take you to more places than a starship."
p1250
sg4
S'rascals'
p1251
sg6
I20
sa(dp1252
g2
S"There's no hurry. The Transporter will still be there... pass me the burnt umber."
p1253
sg4
S'rascals'
p1254
sg6
I14
sa(dp1255
g2
S'But other Klingons feel like laughing. What does that say about you... ?'
p1256
sg4
S'redemption1'
p1257
sg6
I13
sa(dp1258
g2
S"Good game.  Hey, don't feel bad... I was doing this years before you were born."
p1259
sg4
S'redemption1'
p1260
sg6
I15
sa(dp1261
g2
S"Hi. Ten Forward's been pretty quiet today... I thought I'd get in a little target practice. Mind if I join you?"
p1262
sg4
S'redemption1'
p1263
sg6
I21
sa(dp1264
g2
S'How is he, by the way? Your son.'
p1265
sg4
S'redemption1'
p1266
sg6
I8
sa(dp1267
g2
S"I'm sure I heard you laugh once... I liked it..."
p1268
sg4
S'redemption1'
p1269
sg6
I10
sa(dp1270
g2
S'Must be tough for a little guy like that... living with humans, being Klingon... it has to get confusing sometimes...'
p1271
sg4
S'redemption1'
p1272
sg6
I20
sa(dp1273
g2
S"No, it won't. But the time will come when he'll have to find out what it really means to be Klingon...  Just as the time has come now for you, Worf."
p1274
sg4
S'redemption1'
p1275
sg6
I31
sa(dp1276
g2
S"Not true. Not true at all. You may not laugh. But believe me, I've heard some Klingon belly laughs that could shake a room."
p1277
sg4
S'redemption1'
p1278
sg6
I24
sa(dp1279
g2
S"Oh, that's right and you're not. You're all Klingon. Except you don't laugh."
p1280
sg4
S'redemption1'
p1281
sg6
I13
sa(dp1282
g2
S'Ready?  Computer, level fourteen... begin program.'
p1283
sg4
S'redemption1'
p1284
sg6
I6
sa(dp1285
g2
S'Sure. I like to keep my eye sharp.'
p1286
sg4
S'redemption1'
p1287
sg6
I8
sa(dp1288
g2
S"That's okay. I can go back to that level for a while."
p1289
sg4
S'redemption1'
p1290
sg6
I12
sa(dp1291
g2
S'You know, I have a bet with the captain that I can make you smile before you make lieutenant commander.'
p1292
sg4
S'redemption1'
p1293
sg6
I20
sa(dp1294
g2
S"Your son laughs and he's Klingon."
p1295
sg4
S'redemption1'
p1296
sg6
I6
sa(dp1297
g2
S'And... the survivors?'
p1298
sg4
S'redemption2'
p1299
sg6
I3
sa(dp1300
g2
S'Because part of me does...'
p1301
sg4
S'redemption2'
p1302
sg6
I5
sa(dp1303
g2
S'How much do you know about what happened to the last ship named Enterprise?'
p1304
sg4
S'redemption2'
p1305
sg6
I14
sa(dp1306
g2
S"I can see her.. in my mind... asking me a question...  And then it's gone..."
p1307
sg4
S'redemption2'
p1308
sg6
I15
sa(dp1309
g2
S"I don't know how I know. I just do.  I remember it."
p1310
sg4
S'redemption2'
p1311
sg6
I12
sa(dp1312
g2
S"I know that... but I also know I'm right."
p1313
sg4
S'redemption2'
p1314
sg6
I9
sa(dp1315
g2
S"I know. But I also know she was on that ship -- and she wasn't a child.  And Picard... you sent her there."
p1316
sg4
S'redemption2'
p1317
sg6
I23
sa(dp1318
g2
S'Is that what you really think? Or is there some part of you... that wonders?'
p1319
sg4
S'redemption2'
p1320
sg6
I15
sa(dp1321
g2
S"That's all I have. But I listen to it... and you should do the same."
p1322
sg4
S'redemption2'
p1323
sg6
I15
sa(dp1324
g2
S'There were survivors. And one of them was Tasha Yar.'
p1325
sg4
S'redemption2'
p1326
sg6
I10
sa(dp1327
g2
S"Word travels fast. I heard that Tasha Yar's daughter is on the Romulan ship."
p1328
sg4
S'redemption2'
p1329
sg6
I14
sa(dp1330
g2
S"You can't just dismiss this. If I'm right... if you did send Tasha Yar on that ship... then, in a way, Picard... you're responsible for her daughter."
p1331
sg4
S'redemption2'
p1332
sg6
I27
sa(dp1333
g2
S"'Fraid that's the last of it. Next rainfall in a hundred and sixty three days."
p1334
sg4
S'schizoid'
p1335
sg6
I15
sa(dp1336
g2
S"-- Data honey, I don't think it would've helped. That joke chilled my blood."
p1337
sg4
S'schizoid'
p1338
sg6
I14
sa(dp1339
g2
S"-- Maybe it's the birds."
p1340
sg4
S'schizoid'
p1341
sg6
I5
sa(dp1342
g2
S"A year on the planet Thurasia is four hundred and ninety days long. It rains twice, and only twice. You're drinking Thurasian rain water."
p1343
sg4
S'schizoid'
p1344
sg6
I24
sa(dp1345
g2
S'Are you really going down to see Ira Graves? The Ira Graves?'
p1346
sg4
S'schizoid'
p1347
sg6
I12
sa(dp1348
g2
S'Birds are considered to have boring personalities. They just sit around and eat seed all day. Maybe squawk once in a while. Boring.'
p1349
sg4
S'schizoid'
p1350
sg6
I23
sa(dp1351
g2
S"Don't feel too bad, Data. Humor is subjective."
p1352
sg4
S'schizoid'
p1353
sg6
I8
sa(dp1354
g2
S"In fact, there's only one thing birds do that's funny, but you couldn't put that in a joke and keep it tasteful.  Now chickens. Chickens are funny."
p1355
sg4
S'schizoid'
p1356
sg6
I27
sa(dp1357
g2
S"It wasn't meant to be, Data."
p1358
sg4
S'schizoid'
p1359
sg6
I6
sa(dp1360
g2
S"It's a challenge, but I'm trying."
p1361
sg4
S'schizoid'
p1362
sg6
I6
sa(dp1363
g2
S'Remember Will -- great men have great egos.'
p1364
sg4
S'schizoid'
p1365
sg6
I8
sa(dp1366
g2
S'This I gotta hear.'
p1367
sg4
S'schizoid'
p1368
sg6
I4
sa(dp1369
g2
S'But is it more than you hoped?'
p1370
sg4
S'shades'
p1371
sg6
I7
sa(dp1372
g2
S'But you were afraid.'
p1373
sg4
S'shades'
p1374
sg6
I4
sa(dp1375
g2
S"Careful, if you place me too high on a pedestal, you won't be able to reach me."
p1376
sg4
S'shades'
p1377
sg6
I17
sa(dp1378
g2
S'Dreams can be dangerous.'
p1379
sg4
S'shades'
p1380
sg6
I4
sa(dp1381
g2
S"I didn't say that. There's nothing wrong with a line. It's like a knock on the door."
p1382
sg4
S'shades'
p1383
sg6
I17
sa(dp1384
g2
S"I'm not sending you away."
p1385
sg4
S'shades'
p1386
sg6
I5
sa(dp1387
g2
S"Maybe I do think it's a line."
p1388
sg4
S'shades'
p1389
sg6
I7
sa(dp1390
g2
S'Of me?'
p1391
sg4
S'shades'
p1392
sg6
I2
sa(dp1393
g2
S'Shut up, kid.  Now, tell me more about my eyes.'
p1394
sg4
S'shades'
p1395
sg6
I10
sa(dp1396
g2
S'That seems simple enough.'
p1397
sg4
S'shades'
p1398
sg6
I4
sa(dp1399
g2
S'Yes it would.'
p1400
sg4
S'shades'
p1401
sg6
I3
sa(dp1402
g2
S'Ah.'
p1403
sg4
S'suspicions'
p1404
sg6
I1
sa(dp1405
g2
S'Backhand volley.'
p1406
sg4
S'suspicions'
p1407
sg6
I2
sa(dp1408
g2
S'Beverly.'
p1409
sg4
S'suspicions'
p1410
sg6
I1
sa(dp1411
g2
S'But once you send someone on a dangerous mission... all you can do is watch.'
p1412
sg4
S'suspicions'
p1413
sg6
I15
sa(dp1414
g2
S'But this was different.'
p1415
sg4
S'suspicions'
p1416
sg6
I4
sa(dp1417
g2
S"But... I didn't."
p1418
sg4
S'suspicions'
p1419
sg6
I3
sa(dp1420
g2
S'Comfortable?'
p1421
sg4
S'suspicions'
p1422
sg6
I1
sa(dp1423
g2
S'Do I have to break my leg before you tell me what happened?'
p1424
sg4
S'suspicions'
p1425
sg6
I13
sa(dp1426
g2
S'Do you think Reyga killed himself?'
p1427
sg4
S'suspicions'
p1428
sg6
I6
sa(dp1429
g2
S"Do you think there's a murderer on the Enterprise?"
p1430
sg4
S'suspicions'
p1431
sg6
I9
sa(dp1432
g2
S'Doctor... are you angry?'
p1433
sg4
S'suspicions'
p1434
sg6
I4
sa(dp1435
g2
S"Don't you think anyone would have? Maybe you're being a little hard on yourself."
p1436
sg4
S'suspicions'
p1437
sg6
I14
sa(dp1438
g2
S"For me? What's the occasion?"
p1439
sg4
S'suspicions'
p1440
sg6
I5
sa(dp1441
g2
S"For two hours you've been moping around, feeling sorry for yourself..."
p1442
sg4
S'suspicions'
p1443
sg6
I11
sa(dp1444
g2
S"Geordi beat me in straight sets today.  I think I've got a case of tennis elbow."
p1445
sg4
S'suspicions'
p1446
sg6
I16
sa(dp1447
g2
S"I don't want to see Selar. I always see you. I'm particular about my doctors."
p1448
sg4
S'suspicions'
p1449
sg6
I15
sa(dp1450
g2
S'I need a doctor.'
p1451
sg4
S'suspicions'
p1452
sg6
I4
sa(dp1453
g2
S"I've heard every word you said."
p1454
sg4
S'suspicions'
p1455
sg6
I6
sa(dp1456
g2
S"I've never been to a formal inquiry."
p1457
sg4
S'suspicions'
p1458
sg6
I7
sa(dp1459
g2
S"If I had to hazard a guess... I'd say that when you're dealing with a patient... you feel like you're in control."
p1460
sg4
S'suspicions'
p1461
sg6
I22
sa(dp1462
g2
S"If you're angry -- maybe you'll stop moping and do something."
p1463
sg4
S'suspicions'
p1464
sg6
I11
sa(dp1465
g2
S'My elbow.'
p1466
sg4
S'suspicions'
p1467
sg6
I2
sa(dp1468
g2
S'No?'
p1469
sg4
S'suspicions'
p1470
sg6
I1
sa(dp1471
g2
S'So you invited the scientists on board... to listen to this Doctor Reyga...'
p1472
sg4
S'suspicions'
p1473
sg6
I13
sa(dp1474
g2
S"Somebody's birthday?"
p1475
sg4
S'suspicions'
p1476
sg6
I2
sa(dp1477
g2
S'Sort of a scientific diplomat.'
p1478
sg4
S'suspicions'
p1479
sg6
I5
sa(dp1480
g2
S"Thank you, Doctor... it looks like a great racquet. But you see... I don't play tennis. Never have."
p1481
sg4
S'suspicions'
p1482
sg6
I18
sa(dp1483
g2
S'That would do it, all right.'
p1484
sg4
S'suspicions'
p1485
sg6
I6
sa(dp1486
g2
S"That's how I did it. Geordi kept hitting to my backhand at the net..."
p1487
sg4
S'suspicions'
p1488
sg6
I14
sa(dp1489
g2
S"That's my favorite kind."
p1490
sg4
S'suspicions'
p1491
sg6
I4
sa(dp1492
g2
S"That's right. You could be relieved of duty."
p1493
sg4
S'suspicions'
p1494
sg6
I8
sa(dp1495
g2
S'Then what are you going to do about it?'
p1496
sg4
S'suspicions'
p1497
sg6
I9
sa(dp1498
g2
S'Then why are you standing here?'
p1499
sg4
S'suspicions'
p1500
sg6
I6
sa(dp1501
g2
S'Yeah, right there...'
p1502
sg4
S'suspicions'
p1503
sg6
I3
sa(dp1504
g2
S"Your training, your experience... it's all there, at your fingertips. So even if you fail... you know you've done the best you can do."
p1505
sg4
S'suspicions'
p1506
sg6
I24
sa(dp1507
g2
S'Coward...'
p1508
sg4
S'yesterday'
p1509
sg6
I1
sa(dp1510
g2
S'Dead.'
p1511
sg4
S'yesterday'
p1512
sg6
I1
sa(dp1513
g2
S'Drink your prune juice.'
p1514
sg4
S'yesterday'
p1515
sg6
I4
sa(dp1516
g2
S'Families. There should be children here...'
p1517
sg4
S'yesterday'
p1518
sg6
I6
sa(dp1519
g2
S'Forty billion have died in the war...'
p1520
sg4
S'yesterday'
p1521
sg6
I7
sa(dp1522
g2
S'Geordi... tell me about Tasha Yar.'
p1523
sg4
S'yesterday'
p1524
sg6
I6
sa(dp1525
g2
S'Have you ordered yet, Tasha?'
p1526
sg4
S'yesterday'
p1527
sg6
I5
sa(dp1528
g2
S"I don't have alternate biographies of the crew, Tasha. I told the captain... it's just a feeling..."
p1529
sg4
S'yesterday'
p1530
sg6
I17
sa(dp1531
g2
S"I don't know."
p1532
sg4
S'yesterday'
p1533
sg6
I3
sa(dp1534
g2
S"I don't know..."
p1535
sg4
S'yesterday'
p1536
sg6
I3
sa(dp1537
g2
S'I guess I am.'
p1538
sg4
S'yesterday'
p1539
sg6
I4
sa(dp1540
g2
S"I know that. And I also know... it's wrong."
p1541
sg4
S'yesterday'
p1542
sg6
I9
sa(dp1543
g2
S"I look at things... at people... and they don't feel right."
p1544
sg4
S'yesterday'
p1545
sg6
I11
sa(dp1546
g2
S"It's an Earth drink... prune juice."
p1547
sg4
S'yesterday'
p1548
sg6
I6
sa(dp1549
g2
S"It's changed... it's all changed..."
p1550
sg4
S'yesterday'
p1551
sg6
I5
sa(dp1552
g2
S"It's not a suggestion, Captain. And that ship from the past... it was not supposed to come here. It's got to go back."
p1553
sg4
S'yesterday'
p1554
sg6
I23
sa(dp1555
g2
S"It's not right."
p1556
sg4
S'yesterday'
p1557
sg6
I3
sa(dp1558
g2
S'Just try it.'
p1559
sg4
S'yesterday'
p1560
sg6
I3
sa(dp1561
g2
S'No, sir. Sorry to bother you.'
p1562
sg4
S'yesterday'
p1563
sg6
I6
sa(dp1564
g2
S"No, we're not.  I mean, we shouldn't be. This is a ship of peace. Not of war."
p1565
sg4
S'yesterday'
p1566
sg6
I17
sa(dp1567
g2
S'No.  But I know that it was an empty death. A death without purpose.'
p1568
sg4
S'yesterday'
p1569
sg6
I14
sa(dp1570
g2
S'No...'
p1571
sg4
S'yesterday'
p1572
sg6
I1
sa(dp1573
g2
S'Not a thing. What can I get you?'
p1574
sg4
S'yesterday'
p1575
sg6
I8
sa(dp1576
g2
S'Not all of them... I know one or two on board who might find you a bit tame...'
p1577
sg4
S'yesterday'
p1578
sg6
I18
sa(dp1579
g2
S"Picard, we have been together for twenty-two years. I have been your advisor, your confidant, your friend and in all those twenty-two years, I have never led you astray. This time line cannot be allowed to continue. I've told you what you must do. You have only your faith in me to help you decide."
p1580
sg4
S'yesterday'
p1581
sg6
I55
sa(dp1582
g2
S'The bridge...'
p1583
sg4
S'yesterday'
p1584
sg6
I2
sa(dp1585
g2
S"There is no more. I wish there was, Captain. I wish I could prove it. I can't."
p1586
sg4
S'yesterday'
p1587
sg6
I17
sa(dp1588
g2
S'This is a mistake. Every cell in my body knows this is a mistake. I cannot explain it to myself so I cannot explain it to you. I... just know.'
p1589
sg4
S'yesterday'
p1590
sg6
I30
sa(dp1591
g2
S'This war was never meant to be. They must return to their own time to correct that.'
p1592
sg4
S'yesterday'
p1593
sg6
I17
sa(dp1594
g2
S'Try this.'
p1595
sg4
S'yesterday'
p1596
sg6
I2
sa(dp1597
g2
S"We need to talk. Now. It's all wrong, Captain. This is not the way it's supposed to be."
p1598
sg4
S'yesterday'
p1599
sg6
I18
sa(dp1600
g2
S"We weren't meant to know each other at all.  Or that's what I sense when I look at you."
p1601
sg4
S'yesterday'
p1602
sg6
I19
sa(dp1603
g2
S'What would you like?'
p1604
sg4
S'yesterday'
p1605
sg6
I4
sa(dp1606
g2
S'Yes.'
p1607
sg4
S'yesterday'
p1608
sg6
I1
sa(dp1609
g2
S'You must.'
p1610
sg4
S'yesterday'
p1611
sg6
I2
sa(dp1612
g2
S'You never know until you try...'
p1613
sg4
S'yesterday'
p1614
sg6
I6
sa(dp1615
g2
S"You're always drinking alone. It wouldn't hurt you to look for a little...  ...companionship."
p1616
sg4
S'yesterday'
p1617
sg6
I14
sa(dp1618
g2
S"You're not supposed to be here, Tasha."
p1619
sg4
S'yesterday'
p1620
sg6
I7
sa.