(lp0
(dp1
S'text'
p2
S'"Klingon"... I should have said "Klingon". In my heart, I am a Klingon, Worf... So you understand I could never survive in confinement... The universe has been my back yard... this is cruel and unusual punishment. As a fellow Klingon, if you would speak to the captain on my behalf, I would be eternally grateful... which doesn\'t mean as much as it used to, I admit.'
p3
sS'episode'
p4
S'dejaq'
p5
sS'word_count'
p6
I66
sa(dp7
g2
S'... to my professor of the humanities... I have decided my dear Data to give you something very, very special...'
p8
sg4
S'dejaq'
p9
sg6
I20
sa(dp10
g2
S'A genetic weakness of the race.'
p11
sg4
S'dejaq'
p12
sg6
I6
sa(dp13
g2
S"A subjective term, Riker. One creature's torment, is another creature's delight. They simply have no sense of humor... a character flaw with which you can personally identify."
p14
sg4
S'dejaq'
p15
sg6
I27
sa(dp16
g2
S'AAAH...'
p17
sg4
S'dejaq'
p18
sg6
I1
sa(dp19
g2
S'Absolutely.'
p20
sg4
S'dejaq'
p21
sg6
I1
sa(dp22
g2
S'Ah, Doctor Crusher, Starfleet shipped you back into exile, I see...'
p23
sg4
S'dejaq'
p24
sg6
I11
sa(dp25
g2
S"Ah, you've come to apologize... how nice... no offense taken... all is forgiven..."
p26
sg4
S'dejaq'
p27
sg6
I13
sa(dp28
g2
S"And if you're wrong, the moon will crumble due to subspace stress... don't say I didn't warn..."
p29
sg4
S'dejaq'
p30
sg6
I17
sa(dp31
g2
S'And they wanted to destroy me, did they?'
p32
sg4
S'dejaq'
p33
sg6
I8
sa(dp34
g2
S'And yet Data may have sacrificed himself for me. Why? Why would he risk his own life for mine?'
p35
sg4
S'dejaq'
p36
sg6
I19
sa(dp37
g2
S"Au contraire, mon capitaine... heee's back..."
p38
sg4
S'dejaq'
p39
sg6
I6
sa(dp40
g2
S'Because in all the universe you are the closest thing I have to a friend, Jean-Luc.'
p41
sg4
S'dejaq'
p42
sg6
I16
sa(dp43
g2
S"Believe me, life's a lot simpler without feelings... a lot simpler..."
p44
sg4
S'dejaq'
p45
sg6
I11
sa(dp46
g2
S'But I can be a valuable member of your team, Picard...'
p47
sg4
S'dejaq'
p48
sg6
I11
sa(dp49
g2
S'But I feel like celebrating...'
p50
sg4
S'dejaq'
p51
sg6
I5
sa(dp52
g2
S'But Jean-Luc, how can I know what is going on? I have been in this dungeon of yours, helpless and alone... bored to tears...'
p53
sg4
S'dejaq'
p54
sg6
I24
sa(dp55
g2
S"Call it what you want, Picard. I know you'll protect me even though I've tortured you now and again..."
p56
sg4
S'dejaq'
p57
sg6
I19
sa(dp58
g2
S'Can I have a Starfleet uniform...'
p59
sg4
S'dejaq'
p60
sg6
I6
sa(dp61
g2
S'Change the gravitational constant of the universe. And thereby alter the mass of the asteroid...'
p62
sg4
S'dejaq'
p63
sg6
I15
sa(dp64
g2
S'Chocolate...'
p65
sg4
S'dejaq'
p66
sg6
I1
sa(dp67
g2
S"Don't be foolish. That's a waste of my talents..."
p68
sg4
S'dejaq'
p69
sg6
I9
sa(dp70
g2
S"Don't be so hard on me, Jean-Luc. You've been mortal all your life. You know all about dying. I've never given it a second thought. Or a first thought for that matter.  I could have been killed. If not for Data... that one, brief delay he created, I would have been gone. No more me. And nobody would have missed me, would they?"
p71
sg4
S'dejaq'
p72
sg6
I63
sa(dp73
g2
S"Don't fret, Riker... my good fortune is your good fortune."
p74
sg4
S'dejaq'
p75
sg6
I10
sa(dp76
g2
S"Don't try to talk me out of it, Jean-Luc."
p77
sg4
S'dejaq'
p78
sg6
I9
sa(dp79
g2
S"From now on, I'll do missionary work..."
p80
sg4
S'dejaq'
p81
sg6
I7
sa(dp82
g2
S"Given the options -- I'll walk."
p83
sg4
S'dejaq'
p84
sg6
I6
sa(dp85
g2
S'Glad I could help.  Ow... I think.'
p86
sg4
S'dejaq'
p87
sg6
I7
sa(dp88
g2
S'Good.'
p89
sg4
S'dejaq'
p90
sg6
I1
sa(dp91
g2
S'HELP ME. SOMEBODY HELP ME...'
p92
sg4
S'dejaq'
p93
sg6
I5
sa(dp94
g2
S"He's strong, he'll survive."
p95
sg4
S'dejaq'
p96
sg6
I4
sa(dp97
g2
S'How am I supposed to know what I desire?'
p98
sg4
S'dejaq'
p99
sg6
I9
sa(dp100
g2
S'How rude.'
p101
sg4
S'dejaq'
p102
sg6
I2
sa(dp103
g2
S"Humans are such commonplace little creatures. They roam the galaxy looking for something, and they don't even know what it is."
p104
sg4
S'dejaq'
p105
sg6
I21
sa(dp106
g2
S'I ask myself if I would have done the same for him. And I am forced to realize the answer is no. And I feel... I feel ashamed.'
p107
sg4
S'dejaq'
p108
sg6
I28
sa(dp109
g2
S"I assure you one cannot anticipate the Calamarain, Picard... they're intelligent, yes... but undependable... very flighty..."
p110
sg4
S'dejaq'
p111
sg6
I16
sa(dp112
g2
S'I beg your pardon.'
p113
sg4
S'dejaq'
p114
sg6
I4
sa(dp115
g2
S"I can learn. I'm human."
p116
sg4
S'dejaq'
p117
sg6
I5
sa(dp118
g2
S"I can't disappear any more than you can win a beauty contest."
p119
sg4
S'dejaq'
p120
sg6
I12
sa(dp121
g2
S'I demand to be let out of here, do you hear me? You will deactivate this cell immediately.  "Romulan". I should have said "Romulan", you Klingon goat!'
p122
sg4
S'dejaq'
p123
sg6
I27
sa(dp124
g2
S"I don't want human interpersonal relationships. I just want to prove to Picard that I'm indispensable."
p125
sg4
S'dejaq'
p126
sg6
I16
sa(dp127
g2
S'I doubt it.'
p128
sg4
S'dejaq'
p129
sg6
I3
sa(dp130
g2
S'I have been forgiven, embraced by my brothers and sisters of the continuum... I am immortal again, omnipotent again...'
p131
sg4
S'dejaq'
p132
sg6
I19
sa(dp133
g2
S'I have no power... But I still have the knowledge... locked in this puny brain. You cannot afford to dismiss that advantage, can you?'
p134
sg4
S'dejaq'
p135
sg6
I24
sa(dp136
g2
S'I have no powers. Q the ordinary.'
p137
sg4
S'dejaq'
p138
sg6
I7
sa(dp139
g2
S"I haven't the vaguest idea what you're talking about... and I have a much more serious problem... I am no longer a member of the continuum. My superiors have decided to punish me."
p140
sg4
S'dejaq'
p141
sg6
I33
sa(dp142
g2
S"I just can't get used to following orders."
p143
sg4
S'dejaq'
p144
sg6
I8
sa(dp145
g2
S'I prefer to look at it as a significant career change.'
p146
sg4
S'dejaq'
p147
sg6
I11
sa(dp148
g2
S'I think I just hurt my back. I\'m feeling pain. I don\'t think I like it. What\'s the right thing to say... "ow"?'
p149
sg4
S'dejaq'
p150
sg6
I23
sa(dp151
g2
S'I was just seeing if you were still watching'
p152
sg4
S'dejaq'
p153
sg6
I9
sa(dp154
g2
S"I wasn't the one who misplaced the entire Deltived asteroid belt..."
p155
sg4
S'dejaq'
p156
sg6
I11
sa(dp157
g2
S'I will not be spoken to in this manner...'
p158
sg4
S'dejaq'
p159
sg6
I9
sa(dp160
g2
S'I would certainly begin by examining the cause and not the symptom.'
p161
sg4
S'dejaq'
p162
sg6
I12
sa(dp163
g2
S"I'll have ten hot fudge sundaes."
p164
sg4
S'dejaq'
p165
sg6
I6
sa(dp166
g2
S"I'm in a dreadful mood... get me something appropriate..."
p167
sg4
S'dejaq'
p168
sg6
I9
sa(dp169
g2
S"I'm in a really bad mood. And since I've never eaten before, I should be very hungry."
p170
sg4
S'dejaq'
p171
sg6
I17
sa(dp172
g2
S"I'm not hungry."
p173
sg4
S'dejaq'
p174
sg6
I3
sa(dp175
g2
S"I'm warning you... I still have friends in high places..."
p176
sg4
S'dejaq'
p177
sg6
I10
sa(dp178
g2
S"I've been under a lot of stress. Family problems..."
p179
sg4
S'dejaq'
p180
sg6
I9
sa(dp181
g2
S"I've never been any good in groups... it's difficult working in a group when you're omnipotent..."
p182
sg4
S'dejaq'
p183
sg6
I16
sa(dp184
g2
S'If you think I tormented you in the past, my little friends -- wait until you see what I do with you now.'
p185
sg4
S'dejaq'
p186
sg6
I23
sa(dp187
g2
S'Is it good?'
p188
sg4
S'dejaq'
p189
sg6
I3
sa(dp190
g2
S'Is there an echo in here?'
p191
sg4
S'dejaq'
p192
sg6
I6
sa(dp193
g2
S"It doesn't sound too appealing. What else is there?"
p194
sg4
S'dejaq'
p195
sg6
I9
sa(dp196
g2
S"It is a bad joke. On me. I am the joke of the universe. The king who would be man.  As I learn more and more about what it is to be human, I am more and more convinced that I will never make a good one. I just don't have what it takes, Jean-Luc. Without my powers, I'm frightened of everything. I'm a coward. I'm miserable.  And I don't think I can go on this way."
p197
sg4
S'dejaq'
p198
sg6
I77
sa(dp199
g2
S"It is the truth. I stand before you, defrocked. I'm condemned to be a member of this lowest of species. A normal, imperfect, lumpen human being."
p200
sg4
S'dejaq'
p201
sg6
I26
sa(dp202
g2
S'It occurred to me.'
p203
sg4
S'dejaq'
p204
sg6
I4
sa(dp205
g2
S'It was a mistake... I never should have picked human... I knew it the minute I said it.'
p206
sg4
S'dejaq'
p207
sg6
I18
sa(dp208
g2
S"It was... a tiny bit selfless... wasn't it..."
p209
sg4
S'dejaq'
p210
sg6
I8
sa(dp211
g2
S"It's easier this way. They won't bother you after I'm gone."
p212
sg4
S'dejaq'
p213
sg6
I11
sa(dp214
g2
S"It's making noise."
p215
sg4
S'dejaq'
p216
sg6
I3
sa(dp217
g2
S"It's not at all my best color... Behind what... what are you blathering about, Riker..."
p218
sg4
S'dejaq'
p219
sg6
I15
sa(dp220
g2
S"It's terrifying... how can you stand it day after day..."
p221
sg4
S'dejaq'
p222
sg6
I10
sa(dp223
g2
S"It's the ghastly truth, Mister Data... I can now stub my toe with the best of them."
p224
sg4
S'dejaq'
p225
sg6
I17
sa(dp226
g2
S'Jean-Luc... wait...'
p227
sg4
S'dejaq'
p228
sg6
I2
sa(dp229
g2
S"Jean-Luc... you can't do this..."
p230
sg4
S'dejaq'
p231
sg6
I5
sa(dp232
g2
S"La Forge, obviously my knowledge and experience exceed yours... by about a billion times... so if you'll just step aside gracefully..."
p233
sg4
S'dejaq'
p234
sg6
I21
sa(dp235
g2
S'Let us not overstate matters here, Doctor... I am mortal and I survived...'
p236
sg4
S'dejaq'
p237
sg6
I13
sa(dp238
g2
S"No no no no no... don't be foolish... I would never curse you by making you human... Let's just call it a going away present."
p239
sg4
S'dejaq'
p240
sg6
I25
sa(dp241
g2
S'No, it was my request. I could have chosen to exist as a Markoffian fire lizard or a Belzoidian flea, anything I wished... so long as it was mortal, but I only had a fraction of a second to mull and I chose... "this"... and asked them to bring me here...'
p242
sg4
S'dejaq'
p243
sg6
I51
sa(dp244
g2
S'Nothing bizarre. Nothing grotesque.'
p245
sg4
S'dejaq'
p246
sg6
I4
sa(dp247
g2
S"Oh, I'll earn your welcome. You only dislike me. There are others in the cosmos that truly despise me."
p248
sg4
S'dejaq'
p249
sg6
I19
sa(dp250
g2
S'Oh, my mistake... you do have a sense of humor... a dreadful one.'
p251
sg4
S'dejaq'
p252
sg6
I13
sa(dp253
g2
S'Oh. In that case, never mind.'
p254
sg4
S'dejaq'
p255
sg6
I6
sa(dp256
g2
S"Okay, everyone, here's what we're going to do..."
p257
sg4
S'dejaq'
p258
sg6
I8
sa(dp259
g2
S'One of the boys with an IQ of two thousand and five.'
p260
sg4
S'dejaq'
p261
sg6
I12
sa(dp262
g2
S"Ow. I don't think I can straighten up..."
p263
sg4
S'dejaq'
p264
sg6
I8
sa(dp265
g2
S'Perspicacity incarnate. Please don\'t feel compelled to tell me the story of "the boy who cried Worf"?'
p266
sg4
S'dejaq'
p267
sg6
I17
sa(dp268
g2
S"Picard really thinks I can't cut it on his starship... I can do anything his little trained minions can do."
p269
sg4
S'dejaq'
p270
sg6
I20
sa(dp271
g2
S'Please, do not fall back on your tired cliche of charging to the rescue in the nick of time... I do not wish to be rescued... My life as a human being is a dismal failure. Maybe my death can have a little dignity.'
p272
sg4
S'dejaq'
p273
sg6
I44
sa(dp274
g2
S"Q, I've learned my lesson..."
p275
sg4
S'dejaq'
p276
sg6
I5
sa(dp277
g2
S'Q, the miserable. Q, the desperate. What must I do to convince you people...'
p278
sg4
S'dejaq'
p279
sg6
I14
sa(dp280
g2
S'Q...'
p281
sg4
S'dejaq'
p282
sg6
I1
sa(dp283
g2
S'Really? I always felt you were in my corner...'
p284
sg4
S'dejaq'
p285
sg6
I9
sa(dp286
g2
S'Red Alert.'
p287
sg4
S'dejaq'
p288
sg6
I2
sa(dp289
g2
S'Simple. Change the gravitational constant of the universe.'
p290
sg4
S'dejaq'
p291
sg6
I8
sa(dp292
g2
S"Something's wrong with my stomach..."
p293
sg4
S'dejaq'
p294
sg6
I5
sa(dp295
g2
S'Sure, the robot who teaches the course in humanities.'
p296
sg4
S'dejaq'
p297
sg6
I9
sa(dp298
g2
S'Take me there...'
p299
sg4
S'dejaq'
p300
sg6
I3
sa(dp301
g2
S'The Calamarain are not very hospitable creatures. They exist as swirls of ionized gas.'
p302
sg4
S'dejaq'
p303
sg6
I14
sa(dp304
g2
S'The cheers are overwhelming.'
p305
sg4
S'dejaq'
p306
sg6
I4
sa(dp307
g2
S'The two parts of the moon will have different inertial densities...'
p308
sg4
S'dejaq'
p309
sg6
I11
sa(dp310
g2
S'There are creatures in the universe who consider you the ultimate achievement, android. No feelings, no emotions -- no pain. And yet you covet those qualities of humanity. Believe me, you are not missing anything.  But if it means anything to you, Data... you are a better human than I.'
p311
sg4
S'dejaq'
p312
sg6
I50
sa(dp313
g2
S'There is certainly room for improvement. The truth is, Data, they are a minor species in the grand scheme. Not worth your envy...'
p314
sg4
S'dejaq'
p315
sg6
I23
sa(dp316
g2
S"They said I've spread too much chaos through the universe and they have stripped me of all my powers."
p317
sg4
S'dejaq'
p318
sg6
I19
sa(dp319
g2
S'This is a dangerous creature. You have no idea... how could Picard allow her to join the crew and not me...'
p320
sg4
S'dejaq'
p321
sg6
I21
sa(dp322
g2
S'This is getting on my nerves... now that I have nerves...'
p323
sg4
S'dejaq'
p324
sg6
I11
sa(dp325
g2
S'This is incredible.'
p326
sg4
S'dejaq'
p327
sg6
I3
sa(dp328
g2
S'This is obviously the result of a large celestial object passing through at near right angles to the plane of the star system... probably a black hole...'
p329
sg4
S'dejaq'
p330
sg6
I27
sa(dp331
g2
S"This... is not a moment I've been looking forward to."
p332
sg4
S'dejaq'
p333
sg6
I10
sa(dp334
g2
S'Two-seventeen...'
p335
sg4
S'dejaq'
p336
sg6
I1
sa(dp337
g2
S'Very clever, Worf. Eat any good books lately?'
p338
sg4
S'dejaq'
p339
sg6
I8
sa(dp340
g2
S"Well then, if the Calamarain will just hurry up and finish this, we'll get you on your way..."
p341
sg4
S'dejaq'
p342
sg6
I18
sa(dp343
g2
S'What about me?'
p344
sg4
S'dejaq'
p345
sg6
I3
sa(dp346
g2
S'What are you doing here?'
p347
sg4
S'dejaq'
p348
sg6
I5
sa(dp349
g2
S'What are you looking at?'
p350
sg4
S'dejaq'
p351
sg6
I5
sa(dp352
g2
S"What do I ask for? I've never eaten before."
p353
sg4
S'dejaq'
p354
sg6
I9
sa(dp355
g2
S'What do you like?'
p356
sg4
S'dejaq'
p357
sg6
I4
sa(dp358
g2
S'What other dangers are in store for me... I am totally unprepared for this... I need guidance...'
p359
sg4
S'dejaq'
p360
sg6
I17
sa(dp361
g2
S'What?'
p362
sg4
S'dejaq'
p363
sg6
I1
sa(dp364
g2
S'What? Whose lives?'
p365
sg4
S'dejaq'
p366
sg6
I3
sa(dp367
g2
S"When? I wasn't aware of it.  Truthfully, Jean-Luc. I have been entirely preoccupied by a most frightening experience of my own. A couple of hours ago, I started realizing this body was no longer functioning properly... I felt weak, the life oozing out of me... I could no longer stand... and then I lost consciousness..."
p368
sg4
S'dejaq'
p369
sg6
I55
sa(dp370
g2
S"Where's the Main Shuttlebay?"
p371
sg4
S'dejaq'
p372
sg6
I4
sa(dp373
g2
S'Who does he think he is to give me orders...'
p374
sg4
S'dejaq'
p375
sg6
I10
sa(dp376
g2
S'Why does this have to be so hard...'
p377
sg4
S'dejaq'
p378
sg6
I8
sa(dp379
g2
S'Yes, I have once again overstayed my welcome. As a human, I was ill-equipped to thank you, Picard. But as myself, you have my everlasting gratitude.  Until next time, of course. But before I go, there is a debt I must repay...'
p380
sg4
S'dejaq'
p381
sg6
I42
sa(dp382
g2
S"Yes, I suppose you're quite right. The death of a coward. So be it.  Anyway, as a human, I'd die of boredom."
p383
sg4
S'dejaq'
p384
sg6
I22
sa(dp385
g2
S'Yes, with your marvelous plan, you will not only tear the moon to pieces... but your precious ship as well.'
p386
sg4
S'dejaq'
p387
sg6
I20
sa(dp388
g2
S'You do not believe me... ? Would I humiliate myself like this?'
p389
sg4
S'dejaq'
p390
sg6
I12
sa(dp391
g2
S"You flatter me. I'm only trying to put a quick end to a miserable existence."
p392
sg4
S'dejaq'
p393
sg6
I15
sa(dp394
g2
S"You have a moon with a deteriorating orbit... I've known moons across the universe... big ones, small ones... I'm an expert... I can help you with this one... if you let me out of here."
p395
sg4
S'dejaq'
p396
sg6
I35
sa(dp397
g2
S'You just do it. Where is that doctor anyway... ?'
p398
sg4
S'dejaq'
p399
sg6
I10
sa(dp400
g2
S"You're right, of course. I am extraordinarily selfish. It's served me so well in the past..."
p401
sg4
S'dejaq'
p402
sg6
I16
sa(dp403
g2
S"You're so bright, Jean-Luc. Yes, of course, you're correct. I know human beings. You are all sopping over with compassion and forgiveness. The human race can't wait to absolve almost any offense. It's an inherent weakness in the breed."
p404
sg4
S'dejaq'
p405
sg6
I39
sa(dp406
g2
S"You've become so stolid, Commander... you weren't like this before the beard..."
p407
sg4
S'dejaq'
p408
sg6
I12
sa(dp409
g2
S"You've disappointed me, Jean- Luc... I'm very disa..."
p410
sg4
S'dejaq'
p411
sg6
I8
sa(dp412
g2
S"Your bedside manner is admirable, Doctor. I'm sure your patients recover quickly just to get away from you."
p413
sg4
S'dejaq'
p414
sg6
I18
sa(dp415
g2
S'Your compassion...  All right... Sanctuary on your ship... dreary as that may sound to both of us...'
p416
sg4
S'dejaq'
p417
sg6
I17
sa(dp418
g2
S"A gallant gesture Picard. But a futile one.  Farewell. I hope you'll both be happy together."
p419
sg4
S'qpid'
p420
sg6
I16
sa(dp421
g2
S"A letter to Riker?  Quick... Come to Castle... Must save Captain...  Why this is wonderful. Such marvelous duplicity. You certainly fooled Sir Guy. And me as well.  I do believe you're worth further study."
p422
sg4
S'qpid'
p423
sg6
I34
sa(dp424
g2
S'A touch sharper, shall we?'
p425
sg4
S'qpid'
p426
sg6
I5
sa(dp427
g2
S"And it just so happens that Sir Guy of Gisbourne has decreed that Marian's head comes off tomorrow at noon."
p428
sg4
S'qpid'
p429
sg6
I20
sa(dp430
g2
S'And you are a very interesting woman.'
p431
sg4
S'qpid'
p432
sg6
I7
sa(dp433
g2
S'As you wish.'
p434
sg4
S'qpid'
p435
sg6
I3
sa(dp436
g2
S"Believe me, Picard, I'd be doing you a big favor if I simply turned her into a Klabnian eel."
p437
sg4
S'qpid'
p438
sg6
I19
sa(dp439
g2
S'Besides that.'
p440
sg4
S'qpid'
p441
sg6
I2
sa(dp442
g2
S"But Sir Guy, if anyone has been bewitched it's you."
p443
sg4
S'qpid'
p444
sg6
I10
sa(dp445
g2
S"But that's impossible?"
p446
sg4
S'qpid'
p447
sg6
I3
sa(dp448
g2
S"But what of your merry men? Are you willing to put them in jeopardy as well? Is Vash's life worth losing hers or his or even his... ?  Though I admit he would make a perfect throw rug at Nottingham Castle."
p449
sg4
S'qpid'
p450
sg6
I41
sa(dp451
g2
S"Congratulations, Gisbourne. I see you've snared the jackal."
p452
sg4
S'qpid'
p453
sg6
I8
sa(dp454
g2
S"Don't play coy with me Captain. I witnessed your little spat with Vash. Nor will I soon forget that look of misery on your face. The pain. The anguish. If I didn't know better I would have thought you were already married."
p455
sg4
S'qpid'
p456
sg6
I42
sa(dp457
g2
S"Don't you two ever stop arguing?"
p458
sg4
S'qpid'
p459
sg6
I6
sa(dp460
g2
S"Fine. Wait here and do nothing. By mid-day tomorrow, you'll all be safely back aboard your ship. But you will have to accept the consequences of your inaction."
p461
sg4
S'qpid'
p462
sg6
I28
sa(dp463
g2
S"Hardly. They're still apologizing to me for the last time."
p464
sg4
S'qpid'
p465
sg6
I10
sa(dp466
g2
S'Hold there, Sir Guy.'
p467
sg4
S'qpid'
p468
sg6
I4
sa(dp469
g2
S"How can you write about what you haven't seen?"
p470
sg4
S'qpid'
p471
sg6
I9
sa(dp472
g2
S'I admit I was surprised...  Though perhaps not as surprised as Jean-Luc.'
p473
sg4
S'qpid'
p474
sg6
I12
sa(dp475
g2
S'I come to offer apologies for my harsh words earlier. I had no idea you were so ruthless. The cold blooded way you betrayed Robin was most impressive.'
p476
sg4
S'qpid'
p477
sg6
I28
sa(dp478
g2
S"I had such hopes for you, Jean-Luc. I thought you were a bit more evolved than the rest of your species. But now I realize you're as weak as all the others.  Still, it pains me to see the great Picard brought down by a woman."
p479
sg4
S'qpid'
p480
sg6
I46
sa(dp481
g2
S'I only want to help... my debt to you...'
p482
sg4
S'qpid'
p483
sg6
I9
sa(dp484
g2
S'I thought there was something different about you. You seemed tense, preoccupied. Somewhat... smaller.  At first I thought it was that horrible lecture of yours. But I was mistaken.'
p485
sg4
S'qpid'
p486
sg6
I29
sa(dp487
g2
S'I was hoping for something more along the lines of "Welcome back, Q. It\'s a pleasure to see you again old friend."'
p488
sg4
S'qpid'
p489
sg6
I22
sa(dp490
g2
S"I'd prefer it if you addressed me as His Honor the High Sheriff of Nottingham."
p491
sg4
S'qpid'
p492
sg6
I15
sa(dp493
g2
S"I'll take you there!"
p494
sg4
S'qpid'
p495
sg6
I4
sa(dp496
g2
S"Impossible. You see, I've given this fantasy as you call it, a life of its own. I don't know how things will turn out anymore than you do.  But of one thing I am certain. If you dare set foot in Nottingham Castle, blood will be spilled."
p497
sg4
S'qpid'
p498
sg6
I47
sa(dp499
g2
S'Indeed.'
p500
sg4
S'qpid'
p501
sg6
I1
sa(dp502
g2
S"It could be poisoned. Some foul scheme of Robin Hood. She's in league with him still, I'll warrant."
p503
sg4
S'qpid'
p504
sg6
I18
sa(dp505
g2
S"It's love."
p506
sg4
S'qpid'
p507
sg6
I2
sa(dp508
g2
S'Jean-Luc! How wonderful to see you again.'
p509
sg4
S'qpid'
p510
sg6
I7
sa(dp511
g2
S'Must I always have a reason to stop by. I was in the sector and...  Alright. You force a confession from me. The truth is I have a debt to settle.'
p512
sg4
S'qpid'
p513
sg6
I31
sa(dp514
g2
S'Must you always be so ethical?  I suppose we could travel back in time. You could see what Tagus was like two billion years ago. They really knew how to have fun in those days.'
p515
sg4
S'qpid'
p516
sg6
I35
sa(dp517
g2
S'My compliments, Captain. I doubt Robin Hood himself could have done better.'
p518
sg4
S'qpid'
p519
sg6
I12
sa(dp520
g2
S'No, it must be something... something...  ...constructive. My new word for the day.'
p521
sg4
S'qpid'
p522
sg6
I13
sa(dp523
g2
S'Oh, all right.'
p524
sg4
S'qpid'
p525
sg6
I3
sa(dp526
g2
S'Right you are, Data.'
p527
sg4
S'qpid'
p528
sg6
I4
sa(dp529
g2
S'Sadly, they\'re all fine... but the point is they could have been killed, and you might have been too... all for the "Love Of A Maid." My debt to you is paid, Picard, if you have learned how weak and vulnerable you really are... if you can finally see how "Love" brought out the worst in you...'
p530
sg4
S'qpid'
p531
sg6
I57
sa(dp532
g2
S'She is intriguing.'
p533
sg4
S'qpid'
p534
sg6
I3
sa(dp535
g2
S'She is many things, none of them innocent.'
p536
sg4
S'qpid'
p537
sg6
I8
sa(dp538
g2
S'She will not be harmed, Jean-Luc. I promise you that.'
p539
sg4
S'qpid'
p540
sg6
I10
sa(dp541
g2
S'Sir Guy, perhaps it would be wise to keep this wedding a secret for now.'
p542
sg4
S'qpid'
p543
sg6
I15
sa(dp544
g2
S'Sleeping alone, Picard?'
p545
sg4
S'qpid'
p546
sg6
I3
sa(dp547
g2
S'Such benevolence, Sir Guy, allowing the condemned prisoner fresh air.'
p548
sg4
S'qpid'
p549
sg6
I10
sa(dp550
g2
S"Take this traitor away.  It appears there's going to be a double execution."
p551
sg4
S'qpid'
p552
sg6
I13
sa(dp553
g2
S'Tell me Picard, as you stand here facing the termination of your insect existence, do you see what has led you to this end?  Was she worth it?'
p554
sg4
S'qpid'
p555
sg6
I28
sa(dp556
g2
S'The choice is yours my dear, Robin. You can either take your ease here within the sylvan glade or risk your life to save a woman you care nothing about.'
p557
sg4
S'qpid'
p558
sg6
I30
sa(dp559
g2
S'Then you refuse my help?'
p560
sg4
S'qpid'
p561
sg6
I5
sa(dp562
g2
S'There, perhaps now your manners will show some improvement.'
p563
sg4
S'qpid'
p564
sg6
I9
sa(dp565
g2
S'This could be fun.'
p566
sg4
S'qpid'
p567
sg6
I4
sa(dp568
g2
S"This human emotion of Love is a dangerous thing, Picard. You are obviously ill equipped to handle it. She's found a vulnerability in you... a vulnerability that I've wanted to find for years. If I had known this sooner, I would have arrived as a female. Mark my words, Jean-Luc, this is your Achilles heel.."
p569
sg4
S'qpid'
p570
sg6
I55
sa(dp571
g2
S'To you, Picard. And it gnaws at me. It interferes with each day.'
p572
sg4
S'qpid'
p573
sg6
I13
sa(dp574
g2
S"Unfortunately, we won't have the time.  Guards!"
p575
sg4
S'qpid'
p576
sg6
I7
sa(dp577
g2
S"We are going to have fun. I'll take you places no human could ever hope to see."
p578
sg4
S'qpid'
p579
sg6
I17
sa(dp580
g2
S"Well don't just stand there, say something."
p581
sg4
S'qpid'
p582
sg6
I7
sa(dp583
g2
S"Well, aren't you going to kiss her good-bye?"
p584
sg4
S'qpid'
p585
sg6
I8
sa(dp586
g2
S"Well, if he were to hear that Marian's life was no longer in danger, there would be no need for him to come to Nottingham to rescue her."
p587
sg4
S'qpid'
p588
sg6
I28
sa(dp589
g2
S"What's the one thing Robin Hood is famous for?"
p590
sg4
S'qpid'
p591
sg6
I9
sa(dp592
g2
S"What's this?"
p593
sg4
S'qpid'
p594
sg6
I2
sa(dp595
g2
S"Why, all of Nottingham knows you're in love with him."
p596
sg4
S'qpid'
p597
sg6
I10
sa(dp598
g2
S'Without your assistance at our last encounter, I never would have survived. I would have taken my own life but for you, Jean-Luc.'
p599
sg4
S'qpid'
p600
sg6
I23
sa(dp601
g2
S"Yes, your speech. I've read it. I found it dull and pedantic. Much like yourself.  I could help you with it."
p602
sg4
S'qpid'
p603
sg6
I21
sa(dp604
g2
S'You deny you care for this woman?'
p605
sg4
S'qpid'
p606
sg6
I7
sa(dp607
g2
S"You still hope to capture Robin Hood, don't you?"
p608
sg4
S'qpid'
p609
sg6
I9
sa(dp610
g2
S"You want to know about Picard and that woman? I'll tell you..."
p611
sg4
S'qpid'
p612
sg6
I12
sa(dp613
g2
S'You would have me stand idly by while she leads you to your destruction?'
p614
sg4
S'qpid'
p615
sg6
I14
sa(dp616
g2
S'You wound me, mon Capitain.'
p617
sg4
S'qpid'
p618
sg6
I5
sa(dp619
g2
S"You're good. Very good."
p620
sg4
S'qpid'
p621
sg6
I4
sa(dp622
g2
S"You're simply impossible to find a gift for, Picard."
p623
sg4
S'qpid'
p624
sg6
I9
sa(dp625
g2
S"You've never actually been to the ruins in Tagus Three, have you?"
p626
sg4
S'qpid'
p627
sg6
I12
sa(dp628
g2
S"Your good deed made possible my reinstatement into the continuum. And I resent owing you anything... so I'm here to pay up... what shall it be... tell me and I'll be gone..."
p629
sg4
S'qpid'
p630
sg6
I32
sa(dp631
g2
S'A member of the crew. Willing and able -- ready to serve.'
p632
sg4
S'qwho'
p633
sg6
I12
sa(dp634
g2
S'After our last encounter,  I was asked to leave the Q continuum. Since then, I have been wandering vaguely -- bored really -- my existence without purpose. Then, I remembered the good times I had with you...'
p635
sg4
S'qwho'
p636
sg6
I37
sa(dp637
g2
S'Ahh, the redoubtable Commander Riker. And micro-brain.  Growl for me -- let me know you still care.'
p638
sg4
S'qwho'
p639
sg6
I17
sa(dp640
g2
S'And so I have.'
p641
sg4
S'qwho'
p642
sg6
I4
sa(dp643
g2
S"Are you certain you still don't want me as a member of your crew? This would be the time to ask, before everything goes too far beyond your control."
p644
sg4
S'qwho'
p645
sg6
I29
sa(dp646
g2
S'Captain, at least allow me to present my argument.'
p647
sg4
S'qwho'
p648
sg6
I9
sa(dp649
g2
S'Do we stay out here years? Decades? Picard, I am ageless -- you are not.'
p650
sg4
S'qwho'
p651
sg6
I15
sa(dp652
g2
S'Do you mock me?'
p653
sg4
S'qwho'
p654
sg6
I4
sa(dp655
g2
S'Guinan? Is that your name now?'
p656
sg4
S'qwho'
p657
sg6
I6
sa(dp658
g2
S"He may attempt to gain control of the ship. I wouldn't let him."
p659
sg4
S'qwho'
p660
sg6
I13
sa(dp661
g2
S"I add a little excitement, a little spice to your lives and all you do is complain. Where's your adventurous spirit -- your imagination. Think, Picard, of the possibilities."
p662
sg4
S'qwho'
p663
sg6
I29
sa(dp664
g2
S"I agree Captain, enough about this creature -- she's diverting us from the purpose of my being here."
p665
sg4
S'qwho'
p666
sg6
I18
sa(dp667
g2
S'I always keep my arrangements, sir. We are nowhere near your vessel.'
p668
sg4
S'qwho'
p669
sg6
I12
sa(dp670
g2
S"I'd suggest you change your attitude. Petulance does not become you. We have business."
p671
sg4
S'qwho'
p672
sg6
I14
sa(dp673
g2
S"I'll be leaving now. You thought you could handle it -- so handle it."
p674
sg4
S'qwho'
p675
sg6
I14
sa(dp676
g2
S'If I return you to your ship, you will agree to give my request a full hearing?'
p677
sg4
S'qwho'
p678
sg6
I17
sa(dp679
g2
S"If you can't take a little bloody nose -- maybe you had better go back home and crawl under your bed. It's not safe out here. It's wondrous -- with treasures to satiate desires both subtle and gross -- but it is not for the timid."
p680
sg4
S'qwho'
p681
sg6
I46
sa(dp682
g2
S"Interesting isn't it? Not a he -- not a she. Not like anything you've ever seen. An enhanced humanoid."
p683
sg4
S'qwho'
p684
sg6
I19
sa(dp685
g2
S'It will in time, my dear Captain.'
p686
sg4
S'qwho'
p687
sg6
I7
sa(dp688
g2
S'My purpose? Why to join you.'
p689
sg4
S'qwho'
p690
sg6
I6
sa(dp691
g2
S"My, my -- haven't we been careless."
p692
sg4
S'qwho'
p693
sg6
I7
sa(dp694
g2
S"Now where's your smugness -- your arrogance? Do you still believe you are prepared for what awaits you? I tried to tell you but listening has never been one of your laudable attributes. It makes me quite happy to now say -- I told you so."
p695
sg4
S'qwho'
p696
sg6
I46
sa(dp697
g2
S'Of which you were exonerated.'
p698
sg4
S'qwho'
p699
sg6
I5
sa(dp700
g2
S'Oh, come on, Captain, in fairness... let me try, I deserve at least that much.'
p701
sg4
S'qwho'
p702
sg6
I15
sa(dp703
g2
S'Oh, no. This is as real as your "so called" life gets.'
p704
sg4
S'qwho'
p705
sg6
I12
sa(dp706
g2
S'Oh, the arrogance.  They don\'t have a clue about what\'s "out here".'
p707
sg4
S'qwho'
p708
sg6
I12
sa(dp709
g2
S"Oh, you may not trust me, but you do need me. You're not prepared for what awaits you."
p710
sg4
S'qwho'
p711
sg6
I18
sa(dp712
g2
S'Picard, if you had half the sense you pretend to have, you would get her off your ship immediately -- and if you like I will be more than pleased to expedite her departure.'
p713
sg4
S'qwho'
p714
sg6
I34
sa(dp715
g2
S'Picard, you are about to move into areas of the galaxy containing wonders more incredible than you can possibly imagine... and terrors to freeze your soul. I offer myself as guide -- only to be rejected out-of-hand.'
p716
sg4
S'qwho'
p717
sg6
I37
sa(dp718
g2
S'Really?'
p719
sg4
S'qwho'
p720
sg6
I1
sa(dp721
g2
S'Stop -- or you will surely die.'
p722
sg4
S'qwho'
p723
sg6
I7
sa(dp724
g2
S'That was a difficult admission. Another man would be humiliated to say those words. Another man would die before asking for help.'
p725
sg4
S'qwho'
p726
sg6
I22
sa(dp727
g2
S'The Borg is the ultimate user, with the result that they are unlike any threat your Federation has ever faced. They have no interest in political conquest -- or wealth or power as you know it. They simply want your ship -- its technology. They have identified it as something they can consume and use.'
p728
sg4
S'qwho'
p729
sg6
I55
sa(dp730
g2
S"The locator beacon won't help. They'll never look for you this far away."
p731
sg4
S'qwho'
p732
sg6
I13
sa(dp733
g2
S'There -- a little cleaning service. I am more than happy to provide.'
p734
sg4
S'qwho'
p735
sg6
I13
sa(dp736
g2
S'There, there, my dear captain.'
p737
sg4
S'qwho'
p738
sg6
I5
sa(dp739
g2
S'They are moving faster than expected -- farther than they should.'
p740
sg4
S'qwho'
p741
sg6
I11
sa(dp742
g2
S'They are wearing you down. Soon you will be helpless.'
p743
sg4
S'qwho'
p744
sg6
I10
sa(dp745
g2
S'They will follow this ship until you exhaust your fuel. They will wear down your defenses. Then you will be theirs.'
p746
sg4
S'qwho'
p747
sg6
I21
sa(dp748
g2
S'This ship is already home for the indigent, the unwanted and the unworthy -- so why not a homeless entity.'
p749
sg4
S'qwho'
p750
sg6
I20
sa(dp751
g2
S"Those dealings were two centuries ago. This creature is not what she appears to be. She's an imp -- where she goes trouble always follows."
p752
sg4
S'qwho'
p753
sg6
I25
sa(dp754
g2
S"Understand you? You are nothing to him. He has no interest in your life form. He's just a scout -- the first of many. He's here to analyze as much about you as he can -- that's how they always start."
p755
sg4
S'qwho'
p756
sg6
I41
sa(dp757
g2
S"Well, let's just see how ready you are."
p758
sg4
S'qwho'
p759
sg6
I8
sa(dp760
g2
S'What justifies this smugness?'
p761
sg4
S'qwho'
p762
sg6
I4
sa(dp763
g2
S'What makes you think I am either inclined or capable to terminate this encounter?'
p764
sg4
S'qwho'
p765
sg6
I14
sa(dp766
g2
S"Why? Why, to give you a taste of your future. This is a preview of things to come, because if you continue at your present rate of exploration -- very soon you will reach this part of the galaxy.  Con permiso, Capitan. The hall has been rented -- the orchestra engaged -- it's time to see if you can dance."
p767
sg4
S'qwho'
p768
sg6
I60
sa(dp769
g2
S"Yes, more and more I realize that here -- here is where I want to be. Think of the advantages. Now, I neither expect nor require any special treatment. If necessary, although I can't imagine why, I will renounce my powers and become as weak and incompetent as all of you."
p770
sg4
S'qwho'
p771
sg6
I51
sa(dp772
g2
S'Yes.'
p773
sg4
S'qwho'
p774
sg6
I1
sa(dp775
g2
S'You are an impossibly stubborn human.'
p776
sg4
S'qwho'
p777
sg6
I6
sa(dp778
g2
S"You can't outrun them. You can't destroy them. If you damage them, the essence of what they are remains -- they regenerate and keep coming... eventually you will weaken -- your reserves will be gone... they are relentless."
p779
sg4
S'qwho'
p780
sg6
I38
sa(dp781
g2
S"You judge yourselves against the pitiful adversaries you have so far encountered -- the Klingons, the Romulans, are nothing compared to what's waiting."
p782
sg4
S'qwho'
p783
sg6
I23
sa(dp784
g2
S'You made a large mistake in not accepting my offer.'
p785
sg4
S'qwho'
p786
sg6
I10
sa(dp787
g2
S'You!'
p788
sg4
S'qwho'
p789
sg6
I1
sa(dp790
g2
S"You're out of your league, Picard. You should have stayed where you belonged."
p791
sg4
S'qwho'
p792
sg6
I13
sa(dp793
g2
S"You're right Picard. This is the proper venue for our discussion."
p794
sg4
S'qwho'
p795
sg6
I11
sa(dp796
g2
S'... this was.'
p797
sg4
S'tapestry'
p798
sg6
I3
sa(dp799
g2
S"A beautiful story...  Gets you right here doesn't it?"
p800
sg4
S'tapestry'
p801
sg6
I9
sa(dp802
g2
S'A little jumpy this morning, are we? Feeling guilty perhaps?'
p803
sg4
S'tapestry'
p804
sg6
I10
sa(dp805
g2
S"And did I hear you laugh? It's so unlike you to have a sense of humor... especially about getting stabbed through the back."
p806
sg4
S'tapestry'
p807
sg6
I23
sa(dp808
g2
S"And nothing has changed... except for you. But then, that's what you wanted, wasn't it? To change the man you were in your youth? Well, you did it -- and this is the man you are today.  You should be happy... you have a real heart beating in your chest and you get to live out the rest of your life in safety... running tests... making analyses... and carrying reports to your superiors."
p809
sg4
S'tapestry'
p810
sg6
I73
sa(dp811
g2
S'And will you help your best friend avenge this injustice?'
p812
sg4
S'tapestry'
p813
sg6
I10
sa(dp814
g2
S'Are you asking me for something, Jean-Luc?'
p815
sg4
S'tapestry'
p816
sg6
I7
sa(dp817
g2
S'Attention on deck, Ensign Picard!'
p818
sg4
S'tapestry'
p819
sg6
I5
sa(dp820
g2
S"Au contraire. He's the person you wanted to be... one who was less arrogant, and undisciplined as a youth.  One who was less like me."
p821
sg4
S'tapestry'
p822
sg6
I25
sa(dp823
g2
S'Before, you died in Sickbay. Is that what you want?'
p824
sg4
S'tapestry'
p825
sg6
I10
sa(dp826
g2
S"Blasphemy! You're lucky I don't cast you out, or smite you or something."
p827
sg4
S'tapestry'
p828
sg6
I13
sa(dp829
g2
S"But you do wish you'd been more than just... friends, don't you?  Well... here's your chance to change all that."
p830
sg4
S'tapestry'
p831
sg6
I20
sa(dp832
g2
S'Congratulations, Mon Capitain. You did it.'
p833
sg4
S'tapestry'
p834
sg6
I6
sa(dp835
g2
S'Did I interrupt something sordid I hope?'
p836
sg4
S'tapestry'
p837
sg6
I7
sa(dp838
g2
S'Enough what?'
p839
sg4
S'tapestry'
p840
sg6
I2
sa(dp841
g2
S'Ensign Zweller seems to be doing well.'
p842
sg4
S'tapestry'
p843
sg6
I7
sa(dp844
g2
S'Eternity.'
p845
sg4
S'tapestry'
p846
sg6
I1
sa(dp847
g2
S'Excuse me.  Are you addressing me... ?'
p848
sg4
S'tapestry'
p849
sg6
I7
sa(dp850
g2
S'Good morning, darling.'
p851
sg4
S'tapestry'
p852
sg6
I3
sa(dp853
g2
S"He's in the Bonestell Facility right now... rigging the table to beat the Nausicaan. I guess you weren't that persuasive."
p854
sg4
S'tapestry'
p855
sg6
I20
sa(dp856
g2
S'I gave you something most mortals never experience... a second chance at life. And now all you can do is complain?'
p857
sg4
S'tapestry'
p858
sg6
I21
sa(dp859
g2
S"I haven't done anything.  Check your heart rate. Go ahead."
p860
sg4
S'tapestry'
p861
sg6
I10
sa(dp862
g2
S"I see you've found your Nausicaan friend."
p863
sg4
S'tapestry'
p864
sg6
I7
sa(dp865
g2
S'I thought you might like to know that Mister Zweller has decided to ignore your advice.'
p866
sg4
S'tapestry'
p867
sg6
I16
sa(dp868
g2
S"I told you. You're dead. This is the afterlife. And I'm God."
p869
sg4
S'tapestry'
p870
sg6
I12
sa(dp871
g2
S"I wouldn't want to steal the credit... it was a rather disgruntled Lenarian actually."
p872
sg4
S'tapestry'
p873
sg6
I14
sa(dp874
g2
S"I'm glad you think so.  I am curious about one thing... Johnny, why did that rather attractive woman slap you just now? Something you said?"
p875
sg4
S'tapestry'
p876
sg6
I25
sa(dp877
g2
S"I'm impressed. I had no idea you could be such a cad."
p878
sg4
S'tapestry'
p879
sg6
I12
sa(dp880
g2
S"I'm sure you were far more interesting in those days. A pity you had to change."
p881
sg4
S'tapestry'
p882
sg6
I16
sa(dp883
g2
S"I'm sure."
p884
sg4
S'tapestry'
p885
sg6
I2
sa(dp886
g2
S"I've done exactly what I promised, Jean-Luc. I've returned you to the present."
p887
sg4
S'tapestry'
p888
sg6
I13
sa(dp889
g2
S'Is that another regret I hear?'
p890
sg4
S'tapestry'
p891
sg6
I6
sa(dp892
g2
S'Is there a John-Luck Pickard here?'
p893
sg4
S'tapestry'
p894
sg6
I6
sa(dp895
g2
S'It seems your friends know how to have a good time. Maybe you should go take some lessons.'
p896
sg4
S'tapestry'
p897
sg6
I18
sa(dp898
g2
S"It wasn't very smart of you to take on three Nausicaans like that."
p899
sg4
S'tapestry'
p900
sg6
I13
sa(dp901
g2
S"It's bad form to laugh at one's god. Whether you believe me or not, you're here and you have a second chance... what you do with it is entirely up to you.  Do you know where you are?"
p902
sg4
S'tapestry'
p903
sg6
I38
sa(dp904
g2
S"It's no fantasy. This is all very real, I assure you. You're twenty-one years old again... a brash young man, fresh out of the Academy."
p905
sg4
S'tapestry'
p906
sg6
I25
sa(dp907
g2
S'Just one more thing to do... avoid getting stabbed through the heart tonight.'
p908
sg4
S'tapestry'
p909
sg6
I13
sa(dp910
g2
S"Let's see... in the past twenty-four hours, you've managed to get slapped by one woman, have a drink thrown in your face by another, and alienate your two best friends. I'd say you're doing quite nicely so far."
p911
sg4
S'tapestry'
p912
sg6
I38
sa(dp913
g2
S"My, my... we're simply riddled with regrets about our youth, aren't we?"
p914
sg4
S'tapestry'
p915
sg6
I12
sa(dp916
g2
S'No pulse? What a surprise.'
p917
sg4
S'tapestry'
p918
sg6
I5
sa(dp919
g2
S'No?  "We were friends, Q. Nothing more."'
p920
sg4
S'tapestry'
p921
sg6
I7
sa(dp922
g2
S"Now that you've finally shuffled off the mortal coil, we're free to spend some time together. I simply want you to be at peace with yourself."
p923
sg4
S'tapestry'
p924
sg6
I26
sa(dp925
g2
S"Now you're sure you don't have any regrets or feelings of guilt about your former life? I can't have you whining and complaining through eternity."
p926
sg4
S'tapestry'
p927
sg6
I25
sa(dp928
g2
S"Of course you'll die. It'll just be at a later time."
p929
sg4
S'tapestry'
p930
sg6
I11
sa(dp931
g2
S'Oh, very well... if you attach so much importance to the continuity of time... I can personally guarantee that nothing you do here will end up hurting anyone, or have an adverse affect on what you know as history. The only thing at stake here is your life and your peace of mind.  You have my word.'
p932
sg4
S'tapestry'
p933
sg6
I57
sa(dp934
g2
S"Pity. She's quite attractive."
p935
sg4
S'tapestry'
p936
sg6
I4
sa(dp937
g2
S'Really?'
p938
sg4
S'tapestry'
p939
sg6
I1
sa(dp940
g2
S"Really? I'm beginning to like these Nausicaans."
p941
sg4
S'tapestry'
p942
sg6
I7
sa(dp943
g2
S'So if you had it to do all over again... ?'
p944
sg4
S'tapestry'
p945
sg6
I11
sa(dp946
g2
S'So what happens next?'
p947
sg4
S'tapestry'
p948
sg6
I4
sa(dp949
g2
S'Something you regret?'
p950
sg4
S'tapestry'
p951
sg6
I3
sa(dp952
g2
S"Spare me your egotistical musings on your pivotal role in history. Nothing you do here will cause the Federation to collapse or the galaxy to explode. To be blunt... you're not that important."
p953
sg4
S'tapestry'
p954
sg6
I33
sa(dp955
g2
S"That's Captain Q to you, young man."
p956
sg4
S'tapestry'
p957
sg6
I7
sa(dp958
g2
S"That's right. It's two days before your unfortunate encounter with a Nausicaan sword... you have that long to make whatever changes you wish. If you can avoid getting stabbed through the heart this time -- which I doubt -- I'll take you back to what you think of as the present and you can go on with your life... with a real heart."
p959
sg4
S'tapestry'
p960
sg6
I63
sa(dp961
g2
S"That's the spirit, Jean-Luc. Don't let a little thing like death slow down that rapier wit."
p962
sg4
S'tapestry'
p963
sg6
I16
sa(dp964
g2
S'The Jean-Luc Picard you wanted to be, the one who did not fight the Nausicaan, had quite a different career from the one you remember.'
p965
sg4
S'tapestry'
p966
sg6
I25
sa(dp967
g2
S'Then you die on the table and we spend eternity together.'
p968
sg4
S'tapestry'
p969
sg6
I11
sa(dp970
g2
S'Think, Jean-Luc. Why would I go to all the trouble of faking your death when I could simply kill you whenever I felt like it?'
p971
sg4
S'tapestry'
p972
sg6
I25
sa(dp973
g2
S"This isn't for me. This is for you, Jean-Luc... I wanted to give you an opportunity to make peace with your sordid past."
p974
sg4
S'tapestry'
p975
sg6
I23
sa(dp976
g2
S'To everyone else, you do.'
p977
sg4
S'tapestry'
p978
sg6
I5
sa(dp979
g2
S"Very well. If you really require more evidence of your post-mortem status, I'll just have to provide some..."
p980
sg4
S'tapestry'
p981
sg6
I18
sa(dp982
g2
S'Vhat seems to be de trouble, Lieutenant Picard?'
p983
sg4
S'tapestry'
p984
sg6
I8
sa(dp985
g2
S"Welcome to the afterlife, Jean-Luc.  You're dead."
p986
sg4
S'tapestry'
p987
sg6
I7
sa(dp988
g2
S'What an ego.  Did you think the great Jean-Luc Picard would never die?'
p989
sg4
S'tapestry'
p990
sg6
I13
sa(dp991
g2
S'Yes, yes. The conference, the unexpected attack, the compressed teryon beam... the bottom line is, your life ended about five minutes ago under the inept ministrations of Doctor Beverly Crusher.'
p992
sg4
S'tapestry'
p993
sg6
I30
sa(dp994
g2
S"You might have lived if you'd had a real heart instead of this unreliable piece of technology.  How did you manage to lose yours anyway?"
p995
sg4
S'tapestry'
p996
sg6
I25
sa(dp997
g2
S'You mortals can be so obtuse. Why do you persist in believing that life and death are such static and rigid concepts.'
p998
sg4
S'tapestry'
p999
sg6
I22
sa(dp1000
g2
S"You never told me you were such a lady's man."
p1001
sg4
S'tapestry'
p1002
sg6
I10
sa(dp1003
g2
S'You said you regretted a great many things from this time in your life. Well, now you have a chance to change some of them.'
p1004
sg4
S'tapestry'
p1005
sg6
I25
sa(dp1006
g2
S'You seem un-impaled so far.'
p1007
sg4
S'tapestry'
p1008
sg6
I5
sa(dp1009
g2
S"You wound me, Mon Capitain. After all, I wasn't the cause of your death..."
p1010
sg4
S'tapestry'
p1011
sg6
I14
sa(dp1012
g2
S"You? Cheated? Picard, I'm impressed."
p1013
sg4
S'tapestry'
p1014
sg6
I5
sa(dp1015
g2
S'Your artificial heart.'
p1016
sg4
S'tapestry'
p1017
sg6
I3
sa(dp1018
g2
S'All right. As you look at the tissue samples... form an image of them in your mind...'
p1019
sg4
S'trueq'
p1020
sg6
I17
sa(dp1021
g2
S'Amanda. You can do this. Trust me.'
p1022
sg4
S'trueq'
p1023
sg6
I7
sa(dp1024
g2
S"And leave her here... when she's Q? Of course not... she'll come to the Continuum, where she belongs."
p1025
sg4
S'trueq'
p1026
sg6
I18
sa(dp1027
g2
S'And what if they were?'
p1028
sg4
S'trueq'
p1029
sg6
I5
sa(dp1030
g2
S"And why not? They're terribly inconvenient."
p1031
sg4
S'trueq'
p1032
sg6
I6
sa(dp1033
g2
S'Anything...'
p1034
sg4
S'trueq'
p1035
sg6
I1
sa(dp1036
g2
S"Apparently you had every right to chastise me...  ... but what's done is done. Right?"
p1037
sg4
S'trueq'
p1038
sg6
I15
sa(dp1039
g2
S"As a Q, you can have your heart's desire instantly... whatever it might be. Would you like precious jewels? Works of art? Would you like to visit the rings of Tautine?"
p1040
sg4
S'trueq'
p1041
sg6
I31
sa(dp1042
g2
S"As anticipated there have been some problems... but the humans are cooperating. I need more time.  There is a possibility we won't have to terminate her."
p1043
sg4
S'trueq'
p1044
sg6
I26
sa(dp1045
g2
S'Bon jour, mon Capitan. You wanted to talk to me?'
p1046
sg4
S'trueq'
p1047
sg6
I10
sa(dp1048
g2
S"But if she is some kind of hybrid... neither human nor Q... then I'm afraid she'll have to be..."
p1049
sg4
S'trueq'
p1050
sg6
I19
sa(dp1051
g2
S'Close your eyes... concentrate...'
p1052
sg4
S'trueq'
p1053
sg6
I4
sa(dp1054
g2
S"Don't be foolish, Picard. She has no choice. She never did."
p1055
sg4
S'trueq'
p1056
sg6
I11
sa(dp1057
g2
S"Don't be naive. You have no idea what it means to be Q. With unlimited power comes the need for responsibility. Do you think we can allow an omnipotent being to roam free in the universe?"
p1058
sg4
S'trueq'
p1059
sg6
I36
sa(dp1060
g2
S"Don't be sorry. If she wants to do things the hard way, that's her business."
p1061
sg4
S'trueq'
p1062
sg6
I15
sa(dp1063
g2
S"Don't worry. With time you'll be able to overcome the disadvantages you suffered as a child. No one will hold it against you that you were human."
p1064
sg4
S'trueq'
p1065
sg6
I27
sa(dp1066
g2
S'Hello, my dear...'
p1067
sg4
S'trueq'
p1068
sg6
I3
sa(dp1069
g2
S"How fascinating...  I have a splendid idea. We'll combine your work... with our lesson. I'll show you how to finish this in no time."
p1070
sg4
S'trueq'
p1071
sg6
I24
sa(dp1072
g2
S'How quaint.  So do it.'
p1073
sg4
S'trueq'
p1074
sg6
I5
sa(dp1075
g2
S'I assure you, I can --'
p1076
sg4
S'trueq'
p1077
sg6
I6
sa(dp1078
g2
S'I can rescue her from that miserable existence.'
p1079
sg4
S'trueq'
p1080
sg6
I8
sa(dp1081
g2
S'I desperately hope so.'
p1082
sg4
S'trueq'
p1083
sg6
I4
sa(dp1084
g2
S"I haven't decided yet."
p1085
sg4
S'trueq'
p1086
sg6
I4
sa(dp1087
g2
S'I knew I could count on you, Jean-Luc.'
p1088
sg4
S'trueq'
p1089
sg6
I8
sa(dp1090
g2
S'I think you are. How repulsive... how can you stand that hair all over his face?'
p1091
sg4
S'trueq'
p1092
sg6
I16
sa(dp1093
g2
S"I think you've missed the point. You've obviously spent far too much time among humans."
p1094
sg4
S'trueq'
p1095
sg6
I15
sa(dp1096
g2
S"I thought she'd never leave."
p1097
sg4
S'trueq'
p1098
sg6
I5
sa(dp1099
g2
S"I'm going to hide somewhere on the ship... you try to find me."
p1100
sg4
S'trueq'
p1101
sg6
I13
sa(dp1102
g2
S"I've been told that I behaved badly. I...  ... a-pol-ogize..."
p1103
sg4
S'trueq'
p1104
sg6
I10
sa(dp1105
g2
S"I've made that quite clear. The Continuum has a vested interest in this young woman..."
p1106
sg4
S'trueq'
p1107
sg6
I15
sa(dp1108
g2
S"If it isn't Number Two..."
p1109
sg4
S'trueq'
p1110
sg6
I5
sa(dp1111
g2
S'If she is truly Q, she must come where she belongs, to the Continuum...'
p1112
sg4
S'trueq'
p1113
sg6
I14
sa(dp1114
g2
S"If you say so. I wasn't there."
p1115
sg4
S'trueq'
p1116
sg6
I7
sa(dp1117
g2
S'In your mind, return to the time when you were an infant... think about your parents... try and remember them... now, open your eyes.'
p1118
sg4
S'trueq'
p1119
sg6
I24
sa(dp1120
g2
S"Instruct her, of course. If that child doesn't learn how to control her power... she could accidently destroy herself. Or all of you. Perhaps your entire galaxy."
p1121
sg4
S'trueq'
p1122
sg6
I27
sa(dp1123
g2
S"It would be so much easier to show you than to tell you. If you'd just agree to take a short visit to the Continuum --"
p1124
sg4
S'trueq'
p1125
sg6
I26
sa(dp1126
g2
S"It's time for another lesson."
p1127
sg4
S'trueq'
p1128
sg6
I5
sa(dp1129
g2
S"Jean-Luc, Jean-Luc... sometimes I think the only reason I come here is to listen to these wonderful speeches of yours. But in this case your concerns are unwarranted. We've decided not to harm her. We're prepared to offer her a choice."
p1130
sg4
S'trueq'
p1131
sg6
I41
sa(dp1132
g2
S'Jean-Luc... you wound me...'
p1133
sg4
S'trueq'
p1134
sg6
I4
sa(dp1135
g2
S"Let's go, Amanda."
p1136
sg4
S'trueq'
p1137
sg6
I3
sa(dp1138
g2
S'Mon Capitan.'
p1139
sg4
S'trueq'
p1140
sg6
I2
sa(dp1141
g2
S'Mon Capitan... I really think we need to speak privately.'
p1142
sg4
S'trueq'
p1143
sg6
I10
sa(dp1144
g2
S"Not a very challenging field of study, I'll grant you..."
p1145
sg4
S'trueq'
p1146
sg6
I10
sa(dp1147
g2
S'Not bad. Not bad at all.'
p1148
sg4
S'trueq'
p1149
sg6
I6
sa(dp1150
g2
S'Not exactly.'
p1151
sg4
S'trueq'
p1152
sg6
I2
sa(dp1153
g2
S'Not this time, Picard.'
p1154
sg4
S'trueq'
p1155
sg6
I4
sa(dp1156
g2
S'Now do you understand? What do humans have to offer that even begins to compare with that?'
p1157
sg4
S'trueq'
p1158
sg6
I17
sa(dp1159
g2
S"Now that you put it like that, I think you're absolutely right."
p1160
sg4
S'trueq'
p1161
sg6
I12
sa(dp1162
g2
S"Now that you've come to your senses, can we be off?"
p1163
sg4
S'trueq'
p1164
sg6
I11
sa(dp1165
g2
S"Now, be truthful, Amanda. Wasn't it amusing?  Just a little?"
p1166
sg4
S'trueq'
p1167
sg6
I10
sa(dp1168
g2
S"Of course not. You're a Q. But surely there is something you want... something you never dreamed would be possible..."
p1169
sg4
S'trueq'
p1170
sg6
I20
sa(dp1171
g2
S'Of course. I needed to find out if what I suspected about the girl was true.'
p1172
sg4
S'trueq'
p1173
sg6
I16
sa(dp1174
g2
S'Pals?'
p1175
sg4
S'trueq'
p1176
sg6
I1
sa(dp1177
g2
S"She clearly has potential. I see no reason why she can't come back to the Continuum right now."
p1178
sg4
S'trueq'
p1179
sg6
I18
sa(dp1180
g2
S"She'd better -- because I'm all she's got. She needs me to prepare her... for her future with the Q."
p1181
sg4
S'trueq'
p1182
sg6
I20
sa(dp1183
g2
S"She's Q... making her plod through human chores is an insult to her."
p1184
sg4
S'trueq'
p1185
sg6
I13
sa(dp1186
g2
S"She's just a little skittish. She'll have to start behaving like a Q."
p1187
sg4
S'trueq'
p1188
sg6
I13
sa(dp1189
g2
S'Summon the image.'
p1190
sg4
S'trueq'
p1191
sg6
I3
sa(dp1192
g2
S'Superior morality...'
p1193
sg4
S'trueq'
p1194
sg6
I2
sa(dp1195
g2
S"Telekinesis, teleportation, spontaneous combustion of someone you didn't like -- that sort of thing."
p1196
sg4
S'trueq'
p1197
sg6
I14
sa(dp1198
g2
S"That doesn't mean you have to bore her to death."
p1199
sg4
S'trueq'
p1200
sg6
I10
sa(dp1201
g2
S"That she's Q."
p1202
sg4
S'trueq'
p1203
sg6
I3
sa(dp1204
g2
S'The jury is still out, Picard. Make no mistake.'
p1205
sg4
S'trueq'
p1206
sg6
I9
sa(dp1207
g2
S'The other choice is more difficult.  You have within yourself the ability to refrain from using the power of Q. If you can do that -- you can stay here.'
p1208
sg4
S'trueq'
p1209
sg6
I30
sa(dp1210
g2
S"Then I would've known she wasn't Q."
p1211
sg4
S'trueq'
p1212
sg6
I7
sa(dp1213
g2
S'Then, like mawkish humans, they became attached to it. What is it about those squirming little infants that you find so appealing?'
p1214
sg4
S'trueq'
p1215
sg6
I22
sa(dp1216
g2
S"There's my girl!"
p1217
sg4
S'trueq'
p1218
sg6
I3
sa(dp1219
g2
S"There, you see? My dear, what's the point of having these abilities if you can't enjoy them?  Now -- have you been practicing your teleportation?"
p1220
sg4
S'trueq'
p1221
sg6
I25
sa(dp1222
g2
S"There. Isn't that better? Doctor Crusher gets more shrill with each passing year..."
p1223
sg4
S'trueq'
p1224
sg6
I13
sa(dp1225
g2
S'They died in an accident. None of us knew whether the child would inherit the capacities of a Q... but recently, they began to emerge. As an expert on humanity -- I was sent to investigate.'
p1226
sg4
S'trueq'
p1227
sg6
I36
sa(dp1228
g2
S'They had assumed human form... in order to visit Earth. For an amusement, I suppose... but in vulgar human fashion they proceeded to conceive a child.'
p1229
sg4
S'trueq'
p1230
sg6
I26
sa(dp1231
g2
S'Think about them... evoke the memory...'
p1232
sg4
S'trueq'
p1233
sg6
I6
sa(dp1234
g2
S"Think carefully... it won't be easy. Your parents were offered the same choice... and they were unable to resist using their power."
p1235
sg4
S'trueq'
p1236
sg6
I22
sa(dp1237
g2
S"To put it simply... we are omnipotent. There is nothing -- nothing -- we can't do."
p1238
sg4
S'trueq'
p1239
sg6
I16
sa(dp1240
g2
S'Very impressive the way you contained that explosion. What else have you done?'
p1241
sg4
S'trueq'
p1242
sg6
I13
sa(dp1243
g2
S'We found it incomprehensible.'
p1244
sg4
S'trueq'
p1245
sg6
I4
sa(dp1246
g2
S'What are you getting at, Picard?'
p1247
sg4
S'trueq'
p1248
sg6
I6
sa(dp1249
g2
S"What is it you're doing?"
p1250
sg4
S'trueq'
p1251
sg6
I5
sa(dp1252
g2
S'What is it, Amanda? Just tell me...'
p1253
sg4
S'trueq'
p1254
sg6
I7
sa(dp1255
g2
S'Whatever we want.'
p1256
sg4
S'trueq'
p1257
sg6
I3
sa(dp1258
g2
S"Where better than here, among my dear friends? After all... you know so much about the Q... you're the perfect people to introduce me to the child. Let her know she can trust me."
p1259
sg4
S'trueq'
p1260
sg6
I34
sa(dp1261
g2
S"Why? I'm sure the Doctor would be delighted if you could speed things along. Think what it would mean... you could handle double... triple the work load."
p1262
sg4
S'trueq'
p1263
sg6
I27
sa(dp1264
g2
S"Yes, yes -- fine.  But do you really think she'll want to remain a feeble mortal?"
p1265
sg4
S'trueq'
p1266
sg6
I16
sa(dp1267
g2
S'You can come with me to the Continuum --'
p1268
sg4
S'trueq'
p1269
sg6
I9
sa(dp1270
g2
S'You did so well with that I decided to give you a real challenge... the warp core breach.'
p1271
sg4
S'trueq'
p1272
sg6
I18
sa(dp1273
g2
S"You don't have to eat, you know. It's just a nasty human habit you could easily do without."
p1274
sg4
S'trueq'
p1275
sg6
I18
sa(dp1276
g2
S'You never can predict the weather...'
p1277
sg4
S'trueq'
p1278
sg6
I6
sa(dp1279
g2
S"You overreact as usual, Jean-Luc. I assure you -- I was merely testing her power. She's quite a little spitfire, isn't she?"
p1280
sg4
S'trueq'
p1281
sg6
I22
sa(dp1282
g2
S"You see? It's harder to resist than you thought..."
p1283
sg4
S'trueq'
p1284
sg6
I9
sa(dp1285
g2
S"You wouldn't be capable of interfering --"
p1286
sg4
S'trueq'
p1287
sg6
I7
sa(dp1288
g2
S"You're attracted -- to him?"
p1289
sg4
S'trueq'
p1290
sg6
I5
sa(dp1291
g2
S"You're going to have to start honing your abilities. It won't do to be sloppy... let's see... perhaps a little game?"
p1292
sg4
S'trueq'
p1293
sg6
I21
sa(dp1294
g2
S"You're quite right -- I wouldn't. But there are those in the Continuum who have an exaggerated sense of responsibility... and think we should take precautions to keep the little dear from running amuck."
p1295
sg4
S'trueq'
p1296
sg6
I34
sa(dp1297
g2
S"You're still thinking like a human..."
p1298
sg4
S'trueq'
p1299
sg6
I6
sa(dp1300
g2
S"You're such a plucky little thing. I do enjoy you, you know."
p1301
sg4
S'trueq'
p1302
sg6
I12
sa(dp1303
g2
S"Your future contains wonders you can't even imagine... the universe could be your playground..."
p1304
sg4
S'trueq'
p1305
sg6
I14
sa.