(lp0
(dp1
S'text'
p2
S'Aye sir.'
p3
sS'episode'
p4
S'11001001'
p5
sS'word_count'
p6
I2
sa(dp7
g2
S'Aye, sir.'
p8
sg4
S'11001001'
p9
sg6
I2
sa(dp10
g2
S'Do you mind if I ask you a question about the Bynars?'
p11
sg4
S'11001001'
p12
sg6
I12
sa(dp13
g2
S'Fine, Captain. I am just trying to learn something about the Bynars.'
p14
sg4
S'11001001'
p15
sg6
I12
sa(dp16
g2
S'Holodeck Four. Shall I call him for you, sir?'
p17
sg4
S'11001001'
p18
sg6
I9
sa(dp19
g2
S'How can humanoids process information at that speed?'
p20
sg4
S'11001001'
p21
sg6
I8
sa(dp22
g2
S'How did you happen to develop this ability?'
p23
sg4
S'11001001'
p24
sg6
I8
sa(dp25
g2
S"I'm getting an indication of possible trouble in Main Engineering."
p26
sg4
S'11001001'
p27
sg6
I10
sa(dp28
g2
S"Maybe it's just how a different species behaves."
p29
sg4
S'11001001'
p30
sg6
I8
sa(dp31
g2
S"Not very much. I'm reading a problem with the magnetic field which contains the antimatter. Could you come up here?"
p32
sg4
S'11001001'
p33
sg6
I20
sa(dp34
g2
S'To have a society so interdependent on computers has tremendous advantages.'
p35
sg4
S'11001001'
p36
sg6
I11
sa(dp37
g2
S'What is that high-speed sound you make?'
p38
sg4
S'11001001'
p39
sg6
I7
sa(dp40
g2
S'Yes, sir.'
p41
sg4
S'11001001'
p42
sg6
I2
sa(dp43
g2
S"You act like you don't believe them."
p44
sg4
S'11001001'
p45
sg6
I7
sa(dp46
g2
S'At warp seven... thirty-four minutes.'
p47
sg4
S'allegiance'
p48
sg6
I5
sa(dp49
g2
S"Aye aye, sir.  It's good to have you back."
p50
sg4
S'allegiance'
p51
sg6
I9
sa(dp52
g2
S'Aye, sir.'
p53
sg4
S'allegiance'
p54
sg6
I2
sa(dp55
g2
S'Aye, sir.'
p56
sg4
S'allegiance'
p57
sg6
I2
sa(dp58
g2
S'Course laid in, Captain.'
p59
sg4
S'allegiance'
p60
sg6
I4
sa(dp61
g2
S'Data -- any guesses as to what this is all about?'
p62
sg4
S'allegiance'
p63
sg6
I11
sa(dp64
g2
S'Full impulse -- aye, Commander.'
p65
sg4
S'allegiance'
p66
sg6
I5
sa(dp67
g2
S"In other words, you don't know either."
p68
sg4
S'allegiance'
p69
sg6
I7
sa(dp70
g2
S'Orbiting the pulsar at fifty million kilometers, sir.'
p71
sg4
S'allegiance'
p72
sg6
I8
sa(dp73
g2
S'Sir?'
p74
sg4
S'allegiance'
p75
sg6
I1
sa(dp76
g2
S'But the transporter biofilter is supposed to kill stuff like that.'
p77
sg4
S'angelone'
p78
sg6
I11
sa(dp79
g2
S'Captain Picard!'
p80
sg4
S'angelone'
p81
sg6
I2
sa(dp82
g2
S"I can't smell anything. I'm a little congested..."
p83
sg4
S'angelone'
p84
sg6
I8
sa(dp85
g2
S'Mom...'
p86
sg4
S'angelone'
p87
sg6
I1
sa(dp88
g2
S"No problem, sir. The Holodeck has all you'll ever need."
p89
sg4
S'angelone'
p90
sg6
I10
sa(dp91
g2
S'Skiing, sir. Our instructor has us scheduled for the Swiss Alps, sir.'
p92
sg4
S'angelone'
p93
sg6
I12
sa(dp94
g2
S'This is worse than Hesperan Thumping Cough. What is it, Mom?'
p95
sg4
S'angelone'
p96
sg6
I11
sa(dp97
g2
S'We, ah, finished our ski lesson, sir... and it kinda just happened, sir.'
p98
sg4
S'angelone'
p99
sg6
I13
sa(dp100
g2
S'Yes, sir!!'
p101
sg4
S'angelone'
p102
sg6
I2
sa(dp103
g2
S'But, Mom, this is important!'
p104
sg4
S'battle'
p105
sg6
I5
sa(dp106
g2
S"I don't know. Engineering has nothing like it on record."
p107
sg4
S'battle'
p108
sg6
I10
sa(dp109
g2
S"I know you're busy, Mom, but when I went back to the main sensors in Engineering to try some more sensitivity experiments..."
p110
sg4
S'battle'
p111
sg6
I22
sa(dp112
g2
S"If you'll scan heading four-four mark one-six-three, Lieutenant, you'll find..."
p113
sg4
S'battle'
p114
sg6
I10
sa(dp115
g2
S'It could take a few moments, Captain. If they build up their beaming energy through capacitors as seems likely...'
p116
sg4
S'battle'
p117
sg6
I19
sa(dp118
g2
S"It's an old style starship, Constitution Class, heading this way under impulse power, sir."
p119
sg4
S'battle'
p120
sg6
I14
sa(dp121
g2
S"Sir! You'll soon be getting an intruder alert!"
p122
sg4
S'battle'
p123
sg6
I8
sa(dp124
g2
S"Some day. Right now I'm happy to be here."
p125
sg4
S'battle'
p126
sg6
I9
sa(dp127
g2
S'Uh... says the long distance sensors, sir. I was in Engineering, playing around with boosting sensor output...'
p128
sg4
S'battle'
p129
sg6
I17
sa(dp130
g2
S"Well... sometimes it determines exactly what you don't know."
p131
sg4
S'battle'
p132
sg6
I9
sa(dp133
g2
S"Yes, ma'am...  ... if that's what you're talking about there. I don't know anything about brain scans but I glanced at these when you were studying them, Mom, and I noticed..."
p134
sg4
S'battle'
p135
sg6
I31
sa(dp136
g2
S'Yes, sir.'
p137
sg4
S'battle'
p138
sg6
I2
sa(dp139
g2
S'Yes, sir.'
p140
sg4
S'battle'
p141
sg6
I2
sa(dp142
g2
S"You're welcome, ladies.  Adults!"
p143
sg4
S'battle'
p144
sg6
I4
sa(dp145
g2
S"Commander?... I've studied all the technical manuals on the Holodeck. I think I could be of some help down there."
p146
sg4
S'biggoodbye'
p147
sg6
I20
sa(dp148
g2
S"I don't know if I should. If this isn't done correctly, the program could abort and everyone inside could vanish."
p149
sg4
S'biggoodbye'
p150
sg6
I20
sa(dp151
g2
S"I've found three --"
p152
sg4
S'biggoodbye'
p153
sg6
I4
sa(dp154
g2
S'No, sir. Whether we do it now or later, the risk will be the same.'
p155
sg4
S'biggoodbye'
p156
sg6
I15
sa(dp157
g2
S'Teenage mating rituals?'
p158
sg4
S'biggoodbye'
p159
sg6
I3
sa(dp160
g2
S'Thank you sir.'
p161
sg4
S'biggoodbye'
p162
sg6
I3
sa(dp163
g2
S'A long time.  But not any more. Not even a little, sir.'
p164
sg4
S'bonding'
p165
sg6
I12
sa(dp166
g2
S"Because you led the mission. You came back. My father didn't."
p167
sg4
S'bonding'
p168
sg6
I11
sa(dp169
g2
S"But I know what it'll be like for him."
p170
sg4
S'bonding'
p171
sg6
I9
sa(dp172
g2
S'Ensign Crusher reporting as ordered, sir.'
p173
sg4
S'bonding'
p174
sg6
I6
sa(dp175
g2
S'He had to do the same thing for me.'
p176
sg4
S'bonding'
p177
sg6
I9
sa(dp178
g2
S'Hi.'
p179
sg4
S'bonding'
p180
sg6
I1
sa(dp181
g2
S'How can you ever get used to it... to telling them... ?'
p182
sg4
S'bonding'
p183
sg6
I12
sa(dp184
g2
S"I don't know. I guess... I just didn't want to think about it any more, you know... all this has reminded me so much of that day..."
p185
sg4
S'bonding'
p186
sg6
I27
sa(dp187
g2
S'I just tried to be what everybody expected me to be. Brave. Mature.'
p188
sg4
S'bonding'
p189
sg6
I13
sa(dp190
g2
S'I was angry.  At you.'
p191
sg4
S'bonding'
p192
sg6
I5
sa(dp193
g2
S'Like somebody kicked me right in the brain.'
p194
sg4
S'bonding'
p195
sg6
I8
sa(dp196
g2
S'Me? What for?'
p197
sg4
S'bonding'
p198
sg6
I3
sa(dp199
g2
S'My parents taught me about the dangers of starfleet missions. I knew it could happen.'
p200
sg4
S'bonding'
p201
sg6
I15
sa(dp202
g2
S"No, I don't think I was. Not really. How could anyone be... prepared to hear that his dad is... never coming home again."
p203
sg4
S'bonding'
p204
sg6
I23
sa(dp205
g2
S'No.'
p206
sg4
S'bonding'
p207
sg6
I1
sa(dp208
g2
S'Okay. Let me think about it.'
p209
sg4
S'bonding'
p210
sg6
I6
sa(dp211
g2
S"Sometimes I can't quite remember his face... it scares me."
p212
sg4
S'bonding'
p213
sg6
I10
sa(dp214
g2
S"They're very careful to prepare us for... anything. Still..."
p215
sg4
S'bonding'
p216
sg6
I9
sa(dp217
g2
S"Today... it's like I can see it all as clearly as if it were yesterday... the way he looked when he hugged me good-bye... Captain Picard's eyes when he came to tell us..."
p218
sg4
S'bonding'
p219
sg6
I33
sa(dp220
g2
S'What would I tell him?'
p221
sg4
S'bonding'
p222
sg6
I5
sa(dp223
g2
S'You ever think about him, Mom?'
p224
sg4
S'bonding'
p225
sg6
I6
sa(dp226
g2
S'"Uh oh"... it\'s an expression, Data. It just means, you know, uh oh, something\'s wrong...'
p227
sg4
S'boobytrap'
p228
sg6
I15
sa(dp229
g2
S"Commander La Forge had a big date with Christy tonight. He's been working on the perfect program for days. Looks like it ended kinda early."
p230
sg4
S'boobytrap'
p231
sg6
I25
sa(dp232
g2
S'Engines are not responding, sir.'
p233
sg4
S'boobytrap'
p234
sg6
I5
sa(dp235
g2
S"I'm getting fluctuating waveguide readings..."
p236
sg4
S'boobytrap'
p237
sg6
I5
sa(dp238
g2
S'Not much of it left, is there...'
p239
sg4
S'boobytrap'
p240
sg6
I7
sa(dp241
g2
S'Right.'
p242
sg4
S'boobytrap'
p243
sg6
I1
sa(dp244
g2
S"Sir, there's no response."
p245
sg4
S'boobytrap'
p246
sg6
I4
sa(dp247
g2
S'The main power return is acting a little weird...'
p248
sg4
S'boobytrap'
p249
sg6
I9
sa(dp250
g2
S"This was the final battle, wasn't it?"
p251
sg4
S'boobytrap'
p252
sg6
I7
sa(dp253
g2
S'Uh oh...'
p254
sg4
S'boobytrap'
p255
sg6
I2
sa(dp256
g2
S'Yes, sir!'
p257
sg4
S'boobytrap'
p258
sg6
I2
sa(dp259
g2
S'Yes, sir.'
p260
sg4
S'boobytrap'
p261
sg6
I2
sa(dp262
g2
S'Yessir.'
p263
sg4
S'boobytrap'
p264
sg6
I1
sa(dp265
g2
S'And our best shot barely scratched the surface.'
p266
sg4
S'bothworlds'
p267
sg6
I8
sa(dp268
g2
S'Approaching the Paulson Nebula, sir...'
p269
sg4
S'bothworlds'
p270
sg6
I5
sa(dp271
g2
S"Commander, if the Borg stay at warp nine-point-six, we'll be forced to discontinue pursuit and power down in less than three hours."
p272
sg4
S'bothworlds'
p273
sg6
I22
sa(dp274
g2
S'Got another king in the hole, Data?'
p275
sg4
S'bothworlds'
p276
sg6
I7
sa(dp277
g2
S"I don't think so. I fold."
p278
sg4
S'bothworlds'
p279
sg6
I6
sa(dp280
g2
S"I'm in for ten..."
p281
sg4
S'bothworlds'
p282
sg6
I4
sa(dp283
g2
S"I'm in."
p284
sg4
S'bothworlds'
p285
sg6
I2
sa(dp286
g2
S'Knock out one generator and another takes over without interruption.'
p287
sg4
S'bothworlds'
p288
sg6
I10
sa(dp289
g2
S'Mine too.'
p290
sg4
S'bothworlds'
p291
sg6
I2
sa(dp292
g2
S"No, that's okay..."
p293
sg4
S'bothworlds'
p294
sg6
I3
sa(dp295
g2
S'Sir, they did it... the Borg ship is dropping out of warp...'
p296
sg4
S'bothworlds'
p297
sg6
I12
sa(dp298
g2
S'The field is getting too dense, sir...'
p299
sg4
S'bothworlds'
p300
sg6
I7
sa(dp301
g2
S'The main deflector dish.'
p302
sg4
S'bothworlds'
p303
sg6
I4
sa(dp304
g2
S"We'll need to evacuate the entire forward half of the secondary hull. And the lower three decks of the saucer."
p305
sg4
S'bothworlds'
p306
sg6
I20
sa(dp307
g2
S"We're in business."
p308
sg4
S'bothworlds'
p309
sg6
I3
sa(dp310
g2
S'Aye, Captain.'
p311
sg4
S'bothworlds2'
p312
sg6
I2
sa(dp313
g2
S'Borg tractor beam attempting to lock on, Captain...'
p314
sg4
S'bothworlds2'
p315
sg6
I8
sa(dp316
g2
S"Captain, the Borg ship... it's moving away..."
p317
sg4
S'bothworlds2'
p318
sg6
I7
sa(dp319
g2
S"Captain, we're approaching the Wolf system."
p320
sg4
S'bothworlds2'
p321
sg6
I6
sa(dp322
g2
S'Enterprise approaching the Terran system, sir...'
p323
sg4
S'bothworlds2'
p324
sg6
I6
sa(dp325
g2
S'Forty-two minutes, sir.'
p326
sg4
S'bothworlds2'
p327
sg6
I3
sa(dp328
g2
S"It's resuming its course to Earth, sir..."
p329
sg4
S'bothworlds2'
p330
sg6
I7
sa(dp331
g2
S'Riker Alpha, confirmed...'
p332
sg4
S'bothworlds2'
p333
sg6
I3
sa(dp334
g2
S'Riker Beta, confirmed...'
p335
sg4
S'bothworlds2'
p336
sg6
I3
sa(dp337
g2
S'Saucer velocity one hundred meters per second and increasing.'
p338
sg4
S'bothworlds2'
p339
sg6
I9
sa(dp340
g2
S'The Borg tractor beam has moved toward the anti-matter spread.'
p341
sg4
S'bothworlds2'
p342
sg6
I10
sa(dp343
g2
S"The saucer section... it's a sitting duck..."
p344
sg4
S'bothworlds2'
p345
sg6
I7
sa(dp346
g2
S"They're gonna make it..."
p347
sg4
S'bothworlds2'
p348
sg6
I4
sa(dp349
g2
S"They're ignoring the saucer section completely..."
p350
sg4
S'bothworlds2'
p351
sg6
I6
sa(dp352
g2
S'Twenty-seven minutes...'
p353
sg4
S'bothworlds2'
p354
sg6
I2
sa(dp355
g2
S'Twenty-three minutes, fourteen seconds, sir.'
p356
sg4
S'bothworlds2'
p357
sg6
I5
sa(dp358
g2
S'Two minutes, four seconds...'
p359
sg4
S'bothworlds2'
p360
sg6
I4
sa(dp361
g2
S'Yessir.'
p362
sg4
S'bothworlds2'
p363
sg6
I1
sa(dp364
g2
S"... What's its power source?"
p365
sg4
S'bough'
p366
sg6
I5
sa(dp367
g2
S"Captain, I think I figured out their computer controls -- I'm not sure, it's a different system than ours."
p368
sg4
S'bough'
p369
sg6
I19
sa(dp370
g2
S"Custodian's room."
p371
sg4
S'bough'
p372
sg6
I2
sa(dp373
g2
S'Custodian, can you show me where Harry is?'
p374
sg4
S'bough'
p375
sg6
I8
sa(dp376
g2
S'Custodian, show me Alexandra.'
p377
sg4
S'bough'
p378
sg6
I4
sa(dp379
g2
S'Custodian, show me Jason...'
p380
sg4
S'bough'
p381
sg6
I4
sa(dp382
g2
S'Custodian, this is Wesley Crusher.'
p383
sg4
S'bough'
p384
sg6
I5
sa(dp385
g2
S"Custodian, what's in the locked room next to this one?"
p386
sg4
S'bough'
p387
sg6
I10
sa(dp388
g2
S"Custodian, what's your instruction set?"
p389
sg4
S'bough'
p390
sg6
I5
sa(dp391
g2
S'Do you want me to guess?'
p392
sg4
S'bough'
p393
sg6
I6
sa(dp394
g2
S'Does Captain Picard know what you are doing?'
p395
sg4
S'bough'
p396
sg6
I8
sa(dp397
g2
S'Excuse me, sir, where are you taking Tara?'
p398
sg4
S'bough'
p399
sg6
I8
sa(dp400
g2
S'From time to time, every computer -- I mean Custodian -- requires maintainance.'
p401
sg4
S'bough'
p402
sg6
I13
sa(dp403
g2
S"Harry, don't touch that!"
p404
sg4
S'bough'
p405
sg6
I4
sa(dp406
g2
S"Harry, we all have to do this together or it won't work."
p407
sg4
S'bough'
p408
sg6
I12
sa(dp409
g2
S'He will. It just might take him a little while.'
p410
sg4
S'bough'
p411
sg6
I10
sa(dp412
g2
S"Hello, Custodian. I'm Wesley Crusher."
p413
sg4
S'bough'
p414
sg6
I5
sa(dp415
g2
S'How can I command your attention? Do you have a non-maskable interrupt?'
p416
sg4
S'bough'
p417
sg6
I12
sa(dp418
g2
S'How did you know my name?  Oh, through that energy beam.'
p419
sg4
S'bough'
p420
sg6
I11
sa(dp421
g2
S'How do they cloak the planet?'
p422
sg4
S'bough'
p423
sg6
I6
sa(dp424
g2
S"I don't know that either."
p425
sg4
S'bough'
p426
sg6
I5
sa(dp427
g2
S"I don't know who."
p428
sg4
S'bough'
p429
sg6
I4
sa(dp430
g2
S'I knew the captain would get us home.'
p431
sg4
S'bough'
p432
sg6
I8
sa(dp433
g2
S"I know that. But maybe they don't."
p434
sg4
S'bough'
p435
sg6
I7
sa(dp436
g2
S"I know you're hungry. We all are, but Alexandra, we are not going to eat anything. It's our way of telling them that we want to go home. Do you understand?"
p437
sg4
S'bough'
p438
sg6
I31
sa(dp439
g2
S"I know. We all are, but it's going to be all right. Everyone knows where we are. No one is going to hurt you. I promise.  Alexandra, don't go too far!"
p440
sg4
S'bough'
p441
sg6
I31
sa(dp442
g2
S'I need your help. I have an idea how we can get home.'
p443
sg4
S'bough'
p444
sg6
I13
sa(dp445
g2
S'I will, Mom.'
p446
sg4
S'bough'
p447
sg6
I3
sa(dp448
g2
S"I won't."
p449
sg4
S'bough'
p450
sg6
I2
sa(dp451
g2
S"I'm learning a lot. They have a computer which they call the Custodian. It controls everything.  The captain should know this. All their defense systems, the city's environment, everything. And it's all voice command. So simple. But the amazing thing is the Aldeans don't know how it works. They know how to talk to it, but they don't even know what its power source is, and they didn't do the original programming."
p452
sg4
S'bough'
p453
sg6
I72
sa(dp454
g2
S"If you don't know how it works, how can you repair it?"
p455
sg4
S'bough'
p456
sg6
I12
sa(dp457
g2
S"It was scary at first, but I really didn't feel anything."
p458
sg4
S'bough'
p459
sg6
I11
sa(dp460
g2
S'It will take years for him to learn to do that.'
p461
sg4
S'bough'
p462
sg6
I11
sa(dp463
g2
S'It\'s called "passive resistance." We don\'t do anything they want us to do and then they won\'t want us.'
p464
sg4
S'bough'
p465
sg6
I19
sa(dp466
g2
S"It's probably the power source."
p467
sg4
S'bough'
p468
sg6
I5
sa(dp469
g2
S'Like a family.'
p470
sg4
S'bough'
p471
sg6
I3
sa(dp472
g2
S'Mom!'
p473
sg4
S'bough'
p474
sg6
I1
sa(dp475
g2
S'Oh. I thought... never mind.'
p476
sg4
S'bough'
p477
sg6
I5
sa(dp478
g2
S"Okay, really okay. Everyone's been assigned their own units... you know, like families. We're being treated, well, almost like gods."
p479
sg4
S'bough'
p480
sg6
I20
sa(dp481
g2
S'Show me Harry.'
p482
sg4
S'bough'
p483
sg6
I3
sa(dp484
g2
S'Show me where all the Enterprise children are in relation to this room.'
p485
sg4
S'bough'
p486
sg6
I13
sa(dp487
g2
S"Sir! We knew you'd come!"
p488
sg4
S'bough'
p489
sg6
I5
sa(dp490
g2
S"So do I, but I don't want to stay here forever. Do you?"
p491
sg4
S'bough'
p492
sg6
I13
sa(dp493
g2
S'Sorry, sir. She just wanted to give you a present for bringing her back to her mommy.'
p494
sg4
S'bough'
p495
sg6
I17
sa(dp496
g2
S'Thank you.'
p497
sg4
S'bough'
p498
sg6
I2
sa(dp499
g2
S'Thank you. Duana, what does the Custodian do?'
p500
sg4
S'bough'
p501
sg6
I8
sa(dp502
g2
S'Thank you. Good night.'
p503
sg4
S'bough'
p504
sg6
I4
sa(dp505
g2
S'Thank you. What does that mean?'
p506
sg4
S'bough'
p507
sg6
I6
sa(dp508
g2
S"That doesn't make any sense to me."
p509
sg4
S'bough'
p510
sg6
I7
sa(dp511
g2
S'The Custodian -- who is the Custodian?'
p512
sg4
S'bough'
p513
sg6
I7
sa(dp514
g2
S"They said that later on, when I'm really an Aldean, I'll know all their secrets."
p515
sg4
S'bough'
p516
sg6
I15
sa(dp517
g2
S"They won't hurt us."
p518
sg4
S'bough'
p519
sg6
I4
sa(dp520
g2
S'Units?'
p521
sg4
S'bough'
p522
sg6
I1
sa(dp523
g2
S'We already have families.'
p524
sg4
S'bough'
p525
sg6
I4
sa(dp526
g2
S'We want to go home.'
p527
sg4
S'bough'
p528
sg6
I5
sa(dp529
g2
S"What about me? Don't I have a say in this?"
p530
sg4
S'bough'
p531
sg6
I10
sa(dp532
g2
S'What is its address?'
p533
sg4
S'bough'
p534
sg6
I4
sa(dp535
g2
S"What's in there?"
p536
sg4
S'bough'
p537
sg6
I3
sa(dp538
g2
S'When?'
p539
sg4
S'bough'
p540
sg6
I1
sa(dp541
g2
S'Who built it?'
p542
sg4
S'bough'
p543
sg6
I3
sa(dp544
g2
S'You are going to make Harry into a sculptor?'
p545
sg4
S'bough'
p546
sg6
I9
sa(dp547
g2
S"You can keep me here, but you can't make me want to stay. You'll never be able to make me forget. And I'll never be an Aldean."
p548
sg4
S'bough'
p549
sg6
I27
sa(dp550
g2
S"You didn't eat anything."
p551
sg4
S'bough'
p552
sg6
I4
sa(dp553
g2
S'He is on the Bridge, sir.'
p554
sg4
S'brothers'
p555
sg6
I6
sa(dp556
g2
S"Navigation doesn't respond either, sir."
p557
sg4
S'brothers'
p558
sg6
I5
sa(dp559
g2
S'New course set for heading three-four-one mark two-two-one.'
p560
sg4
S'brothers'
p561
sg6
I8
sa(dp562
g2
S'Not me, Commander.'
p563
sg4
S'brothers'
p564
sg6
I3
sa(dp565
g2
S"Sir, we're at Warp nine-three!"
p566
sg4
S'brothers'
p567
sg6
I5
sa(dp568
g2
S'Warp nine-point-three, sir.'
p569
sg4
S'brothers'
p570
sg6
I3
sa(dp571
g2
S"We don't even know what star system we're in, sir."
p572
sg4
S'brothers'
p573
sg6
I10
sa(dp574
g2
S'When he transferred force field control to the Bridge he must have only specified fields he was planning to initiate. The quarantine field was already operating.'
p575
sg4
S'brothers'
p576
sg6
I26
sa(dp577
g2
S"You're the only one who has clearance to localize command functions, sir."
p578
sg4
S'brothers'
p579
sg6
I12
sa(dp580
g2
S'... and that you knew Captain Picard when he was on the Stargazer.'
p581
sg4
S'child'
p582
sg6
I13
sa(dp583
g2
S'About where you come from.'
p584
sg4
S'child'
p585
sg6
I5
sa(dp586
g2
S'Aye, sir.'
p587
sg4
S'child'
p588
sg6
I2
sa(dp589
g2
S"Aye, sir. Course for 'aucdet Nine has been input."
p590
sg4
S'child'
p591
sg6
I9
sa(dp592
g2
S'Aye, sir. Warp nine.'
p593
sg4
S'child'
p594
sg6
I4
sa(dp595
g2
S'Captain, for right now... this is where I want to be. This is where I feel I belong.'
p596
sg4
S'child'
p597
sg6
I18
sa(dp598
g2
S'Captain.'
p599
sg4
S'child'
p600
sg6
I1
sa(dp601
g2
S'Captain... I have thought about this a lot. I want to remain on the Enterprise.'
p602
sg4
S'child'
p603
sg6
I15
sa(dp604
g2
S'Come on, Commander.'
p605
sg4
S'child'
p606
sg6
I3
sa(dp607
g2
S'Could I see you when you have a moment?'
p608
sg4
S'child'
p609
sg6
I9
sa(dp610
g2
S'Everyone is very curious about you.'
p611
sg4
S'child'
p612
sg6
I6
sa(dp613
g2
S'Hello, Captain.'
p614
sg4
S'child'
p615
sg6
I2
sa(dp616
g2
S"I didn't mean the souffle, I meant for... well... the rest. Thanks."
p617
sg4
S'child'
p618
sg6
I12
sa(dp619
g2
S"I heard that you're from Nova Kron and that..."
p620
sg4
S'child'
p621
sg6
I9
sa(dp622
g2
S'I try to.'
p623
sg4
S'child'
p624
sg6
I3
sa(dp625
g2
S"I've got to go."
p626
sg4
S'child'
p627
sg6
I4
sa(dp628
g2
S'It is going to be hard to leave the Enterprise...'
p629
sg4
S'child'
p630
sg6
I10
sa(dp631
g2
S'It will still be there.'
p632
sg4
S'child'
p633
sg6
I5
sa(dp634
g2
S"It's all right. I can use the time to finish some projects."
p635
sg4
S'child'
p636
sg6
I12
sa(dp637
g2
S"No -- nothing. That's the third time you've asked me."
p638
sg4
S'child'
p639
sg6
I10
sa(dp640
g2
S'No, before I do that, I wanted your permission to stay.'
p641
sg4
S'child'
p642
sg6
I11
sa(dp643
g2
S'No. I just wanted to stand here.'
p644
sg4
S'child'
p645
sg6
I7
sa(dp646
g2
S'No. Nothing thank you.'
p647
sg4
S'child'
p648
sg6
I4
sa(dp649
g2
S'Over there is the Lorenze cluster, and there Arneb and there Epsilon Indi.'
p650
sg4
S'child'
p651
sg6
I13
sa(dp652
g2
S'People say you are very old...'
p653
sg4
S'child'
p654
sg6
I6
sa(dp655
g2
S'Sometimes. Sometimes you have to consider others more than yourself.'
p656
sg4
S'child'
p657
sg6
I10
sa(dp658
g2
S'Standard approach, aye.'
p659
sg4
S'child'
p660
sg6
I3
sa(dp661
g2
S'Standard orbit, aye.'
p662
sg4
S'child'
p663
sg6
I3
sa(dp664
g2
S'Thank you, sir.'
p665
sg4
S'child'
p666
sg6
I3
sa(dp667
g2
S'Thank you.'
p668
sg4
S'child'
p669
sg6
I2
sa(dp670
g2
S'The Shuttle Bay is secure.'
p671
sg4
S'child'
p672
sg6
I5
sa(dp673
g2
S'Yes sir, they are.'
p674
sg4
S'child'
p675
sg6
I4
sa(dp676
g2
S'Yes, but this isn\'t "any" ship.'
p677
sg4
S'child'
p678
sg6
I6
sa(dp679
g2
S'Yes, sir.'
p680
sg4
S'child'
p681
sg6
I2
sa(dp682
g2
S"Yes, sir... thank you sir... I just know she'll agree."
p683
sg4
S'child'
p684
sg6
I10
sa(dp685
g2
S'Yes.'
p686
sg4
S'child'
p687
sg6
I1
sa(dp688
g2
S'Yes.'
p689
sg4
S'child'
p690
sg6
I1
sa(dp691
g2
S'You never talk about yourself.'
p692
sg4
S'child'
p693
sg6
I5
sa(dp694
g2
S"I haven't stepped one foot on your bridge, Captain..."
p695
sg4
S'code'
p696
sg6
I9
sa(dp697
g2
S'Sir?'
p698
sg4
S'code'
p699
sg6
I1
sa(dp700
g2
S'Yes sir!'
p701
sg4
S'code'
p702
sg6
I2
sa(dp703
g2
S'Yes sir!'
p704
sg4
S'code'
p705
sg6
I2
sa(dp706
g2
S'Yes sir.'
p707
sg4
S'code'
p708
sg6
I2
sa(dp709
g2
S''
p710
sg4
S'comingage'
p711
sg6
I0
sa(dp712
g2
S'As soon as I realized it was a trick question, there was only one answer.'
p713
sg4
S'comingage'
p714
sg6
I15
sa(dp715
g2
S'Because of my father? Because Cap... someone made that choice and my father died.'
p716
sg4
S'comingage'
p717
sg6
I14
sa(dp718
g2
S'Breathe. Gotta remember to breathe.'
p719
sg4
S'comingage'
p720
sg6
I5
sa(dp721
g2
S'But a man died!'
p722
sg4
S'comingage'
p723
sg6
I4
sa(dp724
g2
S'But on the Enterprise you do that every day. Everyone depends on everyone else to protect them.'
p725
sg4
S'comingage'
p726
sg6
I17
sa(dp727
g2
S'Come on!'
p728
sg4
S'comingage'
p729
sg6
I2
sa(dp730
g2
S'Course plotted and laid in, sir.'
p731
sg4
S'comingage'
p732
sg6
I6
sa(dp733
g2
S'Did you hear that Mordock? She said I was cute!'
p734
sg4
S'comingage'
p735
sg6
I10
sa(dp736
g2
S"Don't fight it. Relax into it and just do it automatically."
p737
sg4
S'comingage'
p738
sg6
I11
sa(dp739
g2
S'End of the corridor on your right. Room 406...'
p740
sg4
S'comingage'
p741
sg6
I9
sa(dp742
g2
S'Gotta go.'
p743
sg4
S'comingage'
p744
sg6
I2
sa(dp745
g2
S'Hello?'
p746
sg4
S'comingage'
p747
sg6
I1
sa(dp748
g2
S'Help me move this!'
p749
sg4
S'comingage'
p750
sg6
I4
sa(dp751
g2
S'Hey, Jake! Wait a second!'
p752
sg4
S'comingage'
p753
sg6
I5
sa(dp754
g2
S"Hi. I'm Wesley Crusher."
p755
sg4
S'comingage'
p756
sg6
I4
sa(dp757
g2
S"How can they know what my deepest fear is when I don't?"
p758
sg4
S'comingage'
p759
sg6
I12
sa(dp760
g2
S"How're you doing?"
p761
sg4
S'comingage'
p762
sg6
I3
sa(dp763
g2
S"I apologize. An honest mistake, okay? I'm sorry."
p764
sg4
S'comingage'
p765
sg6
I8
sa(dp766
g2
S"I don't know. I think so. Maybe. I don't know."
p767
sg4
S'comingage'
p768
sg6
I10
sa(dp769
g2
S"I failed, Captain. I didn't get into the Academy. I failed you... and the Enterprise."
p770
sg4
S'comingage'
p771
sg6
I15
sa(dp772
g2
S'I hope so, sir.'
p773
sg4
S'comingage'
p774
sg6
I4
sa(dp775
g2
S'I wanna scare myself. What do you think -- Bulgallian rats? Lightning storm?'
p776
sg4
S'comingage'
p777
sg6
I13
sa(dp778
g2
S'I wish I felt that sure.'
p779
sg4
S'comingage'
p780
sg6
I6
sa(dp781
g2
S"I'm here. I'm, uh, ready."
p782
sg4
S'comingage'
p783
sg6
I5
sa(dp784
g2
S"I'm on my way."
p785
sg4
S'comingage'
p786
sg6
I4
sa(dp787
g2
S"I'm real sorry..."
p788
sg4
S'comingage'
p789
sg6
I3
sa(dp790
g2
S"I'm sorry, Lieutenant Worf. I shouldn't ask so many personal questions."
p791
sg4
S'comingage'
p792
sg6
I11
sa(dp793
g2
S"I'm sorry."
p794
sg4
S'comingage'
p795
sg6
I2
sa(dp796
g2
S"I'm through testing for the day."
p797
sg4
S'comingage'
p798
sg6
I6
sa(dp799
g2
S'I, um, thought you might want to have lunch... together.'
p800
sg4
S'comingage'
p801
sg6
I10
sa(dp802
g2
S"I... I didn't think it would be appropriate."
p803
sg4
S'comingage'
p804
sg6
I8
sa(dp805
g2
S"It's okay. You deserved to win. Besides, you would've done the same thing for me."
p806
sg4
S'comingage'
p807
sg6
I15
sa(dp808
g2
S"Kinda. But's it's exciting, too. You know, that rolling feeling in your stomach?"
p809
sg4
S'comingage'
p810
sg6
I13
sa(dp811
g2
S'Maybe they forgot.'
p812
sg4
S'comingage'
p813
sg6
I3
sa(dp814
g2
S'Me too!'
p815
sg4
S'comingage'
p816
sg6
I2
sa(dp817
g2
S"Me? No, you're the one. I've studied the Mordock Strategy..."
p818
sg4
S'comingage'
p819
sg6
I10
sa(dp820
g2
S"Mom, I can't be late."
p821
sg4
S'comingage'
p822
sg6
I5
sa(dp823
g2
S'Mordock? Are you... all right?'
p824
sg4
S'comingage'
p825
sg6
I5
sa(dp826
g2
S'Mordock? The Mordock? The Benzite who constructed the Mordock Strategy? I thought you already were in the Academy.'
p827
sg4
S'comingage'
p828
sg6
I18
sa(dp829
g2
S"No! Stay. I thought I wanted to be by myself, but I guess I didn't really."
p830
sg4
S'comingage'
p831
sg6
I16
sa(dp832
g2
S'No, sir... I, he...'
p833
sg4
S'comingage'
p834
sg6
I4
sa(dp835
g2
S'Not really. When he held up his hand, I could see it was webbed... the sign of a Zaldan.'
p836
sg4
S'comingage'
p837
sg6
I19
sa(dp838
g2
S"Officer Chang! There's been an..."
p839
sg4
S'comingage'
p840
sg6
I5
sa(dp841
g2
S"Oh, no, Oliana, it doesn't come easily. I have to study all the time. Mordock's the one who's brilliant."
p842
sg4
S'comingage'
p843
sg6
I19
sa(dp844
g2
S"Oh. It's a flux coordinating sensor."
p845
sg4
S'comingage'
p846
sg6
I6
sa(dp847
g2
S"Oh. Sorry.  You're not leaving., are you?"
p848
sg4
S'comingage'
p849
sg6
I7
sa(dp850
g2
S'Oh... okay.'
p851
sg4
S'comingage'
p852
sg6
I2
sa(dp853
g2
S"Okay. So far. It's not the ones I've studied for I'm worried about. It's the Psych Test, facing my deepest fear and living through it. I don't even know what it is. I'm trying to figure out what images to bring up."
p854
sg4
S'comingage'
p855
sg6
I42
sa(dp856
g2
S'Oliana!'
p857
sg4
S'comingage'
p858
sg6
I1
sa(dp859
g2
S'Performance?!... That was the test.'
p860
sg4
S'comingage'
p861
sg6
I5
sa(dp862
g2
S"Somebody help! Something's wrong in the lab!"
p863
sg4
S'comingage'
p864
sg6
I7
sa(dp865
g2
S'Sure!'
p866
sg4
S'comingage'
p867
sg6
I1
sa(dp868
g2
S"Thanks everybody. But it's not until next month."
p869
sg4
S'comingage'
p870
sg6
I8
sa(dp871
g2
S'Thanks for the party, everyone. And the good wishes.'
p872
sg4
S'comingage'
p873
sg6
I9
sa(dp874
g2
S"That's what they said, but it's all I can think about."
p875
sg4
S'comingage'
p876
sg6
I11
sa(dp877
g2
S'The Psych Test, sir?'
p878
sg4
S'comingage'
p879
sg6
I4
sa(dp880
g2
S'Then you got over it.'
p881
sg4
S'comingage'
p882
sg6
I5
sa(dp883
g2
S"Then you're not disappointed?"
p884
sg4
S'comingage'
p885
sg6
I4
sa(dp886
g2
S"Uh, I'll be sixteen next month."
p887
sg4
S'comingage'
p888
sg6
I6
sa(dp889
g2
S'Well, yes...'
p890
sg4
S'comingage'
p891
sg6
I2
sa(dp892
g2
S"Well, you wouldn't be here if..."
p893
sg4
S'comingage'
p894
sg6
I6
sa(dp895
g2
S'Wesley Crusher, from the Enterprise.'
p896
sg4
S'comingage'
p897
sg6
I5
sa(dp898
g2
S'What?'
p899
sg4
S'comingage'
p900
sg6
I1
sa(dp901
g2
S"Who do you think you're bullying? You bumped into me. It was your mistake. You were rude.  Do you want this to become violent?"
p902
sg4
S'comingage'
p903
sg6
I24
sa(dp904
g2
S'Yeah! You know me?'
p905
sg4
S'comingage'
p906
sg6
I4
sa(dp907
g2
S'Yes, I know, but I wish we were both going.'
p908
sg4
S'comingage'
p909
sg6
I10
sa(dp910
g2
S'Yes, sir.'
p911
sg4
S'comingage'
p912
sg6
I2
sa(dp913
g2
S'You have to help me!'
p914
sg4
S'comingage'
p915
sg6
I5
sa(dp916
g2
S"You have to. I can't carry you both! You can walk. Come on."
p917
sg4
S'comingage'
p918
sg6
I13
sa(dp919
g2
S"You're a legend in the Galactic Computer Network..."
p920
sg4
S'comingage'
p921
sg6
I8
sa(dp922
g2
S"You're doing all right..."
p923
sg4
S'comingage'
p924
sg6
I4
sa(dp925
g2
S"You? I didn't think there was anything that could frighten a Klingon warrior."
p926
sg4
S'comingage'
p927
sg6
I13
sa(dp928
g2
S'You? You failed?'
p929
sg4
S'comingage'
p930
sg6
I3
sa(dp931
g2
S'Zaldans are infuriated by courtesy. They see it as a form of phony social behavior, designed to hide real feelings.'
p932
sg4
S'comingage'
p933
sg6
I20
sa(dp934
g2
S'Air and darkness?'
p935
sg4
S'contagion'
p936
sg6
I3
sa(dp937
g2
S'Commander, Romulan vessel!'
p938
sg4
S'contagion'
p939
sg6
I3
sa(dp940
g2
S'Four minutes, thirty-three seconds, sir.'
p941
sg4
S'contagion'
p942
sg6
I5
sa(dp943
g2
S'How did you find out about all this?'
p944
sg4
S'contagion'
p945
sg6
I8
sa(dp946
g2
S"I can't stop thinking about the Yamato. All those people -- dead. I just don't know how you do it. You, Commander Riker, Geordi, you all handle it so easily."
p947
sg4
S'contagion'
p948
sg6
I30
sa(dp949
g2
S"I'm trying, sir!"
p950
sg4
S'contagion'
p951
sg6
I3
sa(dp952
g2
S"It's about the Iconians, sir. I'd always heard that they were just a myth."
p953
sg4
S'contagion'
p954
sg6
I14
sa(dp955
g2
S'Shields not responding.'
p956
sg4
S'contagion'
p957
sg6
I3
sa(dp958
g2
S'Sir, another probe launched from the planet, heading for the Romulan.'
p959
sg4
S'contagion'
p960
sg6
I11
sa(dp961
g2
S'Sir, may I talk to you for a minute?'
p962
sg4
S'contagion'
p963
sg6
I9
sa(dp964
g2
S'Sir, the shields are up.'
p965
sg4
S'contagion'
p966
sg6
I5
sa(dp967
g2
S"Sir, what about the away team? With our shields up we can't beam them back."
p968
sg4
S'contagion'
p969
sg6
I15
sa(dp970
g2
S'So they were warlike?'
p971
sg4
S'contagion'
p972
sg6
I4
sa(dp973
g2
S'That sounds like magic.'
p974
sg4
S'contagion'
p975
sg6
I4
sa(dp976
g2
S'The Iconians colonized those worlds?'
p977
sg4
S'contagion'
p978
sg6
I5
sa(dp979
g2
S'The shields are back up.'
p980
sg4
S'contagion'
p981
sg6
I5
sa(dp982
g2
S'Uh, shields are back down.'
p983
sg4
S'contagion'
p984
sg6
I5
sa(dp985
g2
S"Why would the Romulans be having problems? They haven't been probed."
p986
sg4
S'contagion'
p987
sg6
I11
sa(dp988
g2
S"... that what I've said would have been listened to if it came from an adult officer. Request permission to return to my quarters, sir."
p989
sg4
S'datalore'
p990
sg6
I25
sa(dp991
g2
S'Aye, sir.'
p992
sg4
S'datalore'
p993
sg6
I2
sa(dp994
g2
S'Captain, recommend you do not let...  ... him move around the ship alone.'
p995
sg4
S'datalore'
p996
sg6
I13
sa(dp997
g2
S"Confirm! And so fast it makes our warp eight look like we're standing still!"
p998
sg4
S'datalore'
p999
sg6
I14
sa(dp1000
g2
S'Data, the Crystal Thing is outside close to the ship... and Lore is loose somewhere inside.'
p1001
sg4
S'datalore'
p1002
sg6
I16
sa(dp1003
g2
S'Data... !'
p1004
sg4
S'datalore'
p1005
sg6
I2
sa(dp1006
g2
S'Have you got a... a "cold?"'
p1007
sg4
S'datalore'
p1008
sg6
I6
sa(dp1009
g2
S'He indicated that, sir.'
p1010
sg4
S'datalore'
p1011
sg6
I4
sa(dp1012
g2
S'He said he "turned him off," Mom...  ... uh, Doctor.'
p1013
sg4
S'datalore'
p1014
sg6
I10
sa(dp1015
g2
S"How can you be practicing sneezing when you're arriving for the first time at your home planet? Aren't you interested in that?"
p1016
sg4
S'datalore'
p1017
sg6
I22
sa(dp1018
g2
S'I know, Mom. So tell me again to "shut up, Wesley," and I will.'
p1019
sg4
S'datalore'
p1020
sg6
I14
sa(dp1021
g2
S'I\'d suggest you forget imitating him...  ... because if you had said "We\'ve been using the sensors," instead if "we have," I might have suspected you were Lore.'
p1022
sg4
S'datalore'
p1023
sg6
I28
sa(dp1024
g2
S"It's Data! For once will you trust me about something?"
p1025
sg4
S'datalore'
p1026
sg6
I10
sa(dp1027
g2
S"It's Data, Mom. He's been hurt!"
p1028
sg4
S'datalore'
p1029
sg6
I6
sa(dp1030
g2
S"It's a disease my mother says people used to get."
p1031
sg4
S'datalore'
p1032
sg6
I10
sa(dp1033
g2
S"Lore's gone, sir, permanently!"
p1034
sg4
S'datalore'
p1035
sg6
I4
sa(dp1036
g2
S'Mom!'
p1037
sg4
S'datalore'
p1038
sg6
I1
sa(dp1039
g2
S'Not if I have a choice.'
p1040
sg4
S'datalore'
p1041
sg6
I6
sa(dp1042
g2
S'Or is it Lore pretending to be Data, and faking it all?'
p1043
sg4
S'datalore'
p1044
sg6
I12
sa(dp1045
g2
S"Please, Mom. Let's go."
p1046
sg4
S'datalore'
p1047
sg6
I4
sa(dp1048
g2
S'Since I am finished here, Captain, may I point out... ?'
p1049
sg4
S'datalore'
p1050
sg6
I11
sa(dp1051
g2
S'Sir, I know this may finish me as an acting ensign, but...'
p1052
sg4
S'datalore'
p1053
sg6
I12
sa(dp1054
g2
S"Sir... you asked for the kind of computer upgrade that only the Bynars can handle. And they're available only at this time."
p1055
sg4
S'datalore'
p1056
sg6
I22
sa(dp1057
g2
S'What are you doing?'
p1058
sg4
S'datalore'
p1059
sg6
I4
sa(dp1060
g2
S'Which separates it from another three hundred-sixty degree full circle like this... on a right angle to that one.'
p1061
sg4
S'datalore'
p1062
sg6
I19
sa(dp1063
g2
S'Why did he do that, Data?'
p1064
sg4
S'datalore'
p1065
sg6
I6
sa(dp1066
g2
S'Yes sir!'
p1067
sg4
S'datalore'
p1068
sg6
I2
sa(dp1069
g2
S'Yes sir!'
p1070
sg4
S'datalore'
p1071
sg6
I2
sa(dp1072
g2
S'Yes, sir!'
p1073
sg4
S'datalore'
p1074
sg6
I2
sa(dp1075
g2
S"You must know how much Starfleet means to me. But I'm finished unless you can help me.  I heard you know how to turn them on. Please?"
p1076
sg4
S'datalore'
p1077
sg6
I27
sa(dp1078
g2
S"You'll find as I have that starships are loaded with rules which have to be learned."
p1079
sg4
S'datalore'
p1080
sg6
I16
sa(dp1081
g2
S'A shape shifter?'
p1082
sg4
S'dauphin'
p1083
sg6
I3
sa(dp1084
g2
S'A taste to remember me by.'
p1085
sg4
S'dauphin'
p1086
sg6
I6
sa(dp1087
g2
S'Actually all you have to do is tell the computer what you want and it will prepare it for you.'
p1088
sg4
S'dauphin'
p1089
sg6
I20
sa(dp1090
g2
S"And now she's returning."
p1091
sg4
S'dauphin'
p1092
sg6
I4
sa(dp1093
g2
S"And one day you'll visit Rosseau Five... and other places and more spectacular than this."
p1094
sg4
S'dauphin'
p1095
sg6
I15
sa(dp1096
g2
S'And then what?'
p1097
sg4
S'dauphin'
p1098
sg6
I3
sa(dp1099
g2
S'Are you telling me to go yell at Salia?'
p1100
sg4
S'dauphin'
p1101
sg6
I9
sa(dp1102
g2
S'Believe me, the Ten-Forward room is not an illusion.'
p1103
sg4
S'dauphin'
p1104
sg6
I9
sa(dp1105
g2
S'But I thought you were going there to unite two groups which have been fighting.'
p1106
sg4
S'dauphin'
p1107
sg6
I15
sa(dp1108
g2
S'But what are you really?'
p1109
sg4
S'dauphin'
p1110
sg6
I5
sa(dp1111
g2
S'But what do I say? How should I act? What do I do?'
p1112
sg4
S'dauphin'
p1113
sg6
I13
sa(dp1114
g2
S'Can you?'
p1115
sg4
S'dauphin'
p1116
sg6
I2
sa(dp1117
g2
S'Come in.'
p1118
sg4
S'dauphin'
p1119
sg6
I2
sa(dp1120
g2
S'Come in.'
p1121
sg4
S'dauphin'
p1122
sg6
I2
sa(dp1123
g2
S'Come with me.'
p1124
sg4
S'dauphin'
p1125
sg6
I3
sa(dp1126
g2
S'Commander Riker...'
p1127
sg4
S'dauphin'
p1128
sg6
I2
sa(dp1129
g2
S'Data -- the girl who just came on board.'
p1130
sg4
S'dauphin'
p1131
sg6
I9
sa(dp1132
g2
S'Data! I want to meet her, not dissect her.'
p1133
sg4
S'dauphin'
p1134
sg6
I9
sa(dp1135
g2
S"Does Anya know you're here?"
p1136
sg4
S'dauphin'
p1137
sg6
I5
sa(dp1138
g2
S'Done, Captain.'
p1139
sg4
S'dauphin'
p1140
sg6
I2
sa(dp1141
g2
S'Energize.'
p1142
sg4
S'dauphin'
p1143
sg6
I1
sa(dp1144
g2
S"For us both. Everything is just beginning. We've only charted nineteen percent of our galaxy... the rest is out there -- waiting for us. And already, look at what we've discovered."
p1145
sg4
S'dauphin'
p1146
sg6
I31
sa(dp1147
g2
S"Geordi, this girl they beamed up, she's... she's perfect! Perfect!"
p1148
sg4
S'dauphin'
p1149
sg6
I10
sa(dp1150
g2
S"Geordi.  Oh... Yes.. I'm fine... I just..."
p1151
sg4
S'dauphin'
p1152
sg6
I7
sa(dp1153
g2
S'Got to go. Thanks, Data.'
p1154
sg4
S'dauphin'
p1155
sg6
I5
sa(dp1156
g2
S'How about something to drink?'
p1157
sg4
S'dauphin'
p1158
sg6
I5
sa(dp1159
g2
S'I better get back to my duties.'
p1160
sg4
S'dauphin'
p1161
sg6
I7
sa(dp1162
g2
S"I didn't expect you to say that."
p1163
sg4
S'dauphin'
p1164
sg6
I7
sa(dp1165
g2
S"I didn't say that."
p1166
sg4
S'dauphin'
p1167
sg6
I4
sa(dp1168
g2
S"I don't believe this! Who is she?"
p1169
sg4
S'dauphin'
p1170
sg6
I7
sa(dp1171
g2
S"I don't know. what do you like?"
p1172
sg4
S'dauphin'
p1173
sg6
I7
sa(dp1174
g2
S"I don't think this is my style."
p1175
sg4
S'dauphin'
p1176
sg6
I7
sa(dp1177
g2
S"I don't understand."
p1178
sg4
S'dauphin'
p1179
sg6
I3
sa(dp1180
g2
S'I had it on the wrong setting.'
p1181
sg4
S'dauphin'
p1182
sg6
I7
sa(dp1183
g2
S'I know... Computer, Thalian chocolate mousse.'
p1184
sg4
S'dauphin'
p1185
sg6
I6
sa(dp1186
g2
S'I loved you.'
p1187
sg4
S'dauphin'
p1188
sg6
I3
sa(dp1189
g2
S'I never thought of it that way.'
p1190
sg4
S'dauphin'
p1191
sg6
I7
sa(dp1192
g2
S'I will do as you ask.'
p1193
sg4
S'dauphin'
p1194
sg6
I6
sa(dp1195
g2
S"I'll do better."
p1196
sg4
S'dauphin'
p1197
sg6
I3
sa(dp1198
g2
S"I'm glad you came. I thought Anya would have kept you with her."
p1199
sg4
S'dauphin'
p1200
sg6
I13
sa(dp1201
g2
S"I'm looking!"
p1202
sg4
S'dauphin'
p1203
sg6
I2
sa(dp1204
g2
S"I'm never going to feel this way about anyone else."
p1205
sg4
S'dauphin'
p1206
sg6
I10
sa(dp1207
g2
S"I'm not in trouble... yet."
p1208
sg4
S'dauphin'
p1209
sg6
I5
sa(dp1210
g2
S"I'm on my way."
p1211
sg4
S'dauphin'
p1212
sg6
I4
sa(dp1213
g2
S"I've got my mind on something."
p1214
sg4
S'dauphin'
p1215
sg6
I6
sa(dp1216
g2
S'In other words, you slipped away.'
p1217
sg4
S'dauphin'
p1218
sg6
I6
sa(dp1219
g2
S'Is something wrong?'
p1220
sg4
S'dauphin'
p1221
sg6
I3
sa(dp1222
g2
S'Is that what awaits you on Daled Four?'
p1223
sg4
S'dauphin'
p1224
sg6
I8
sa(dp1225
g2
S"It's one of my favorite places."
p1226
sg4
S'dauphin'
p1227
sg6
I6
sa(dp1228
g2
S"It's the best part of being on the Enterprise."
p1229
sg4
S'dauphin'
p1230
sg6
I9
sa(dp1231
g2
S"It's time we changed that."
p1232
sg4
S'dauphin'
p1233
sg6
I5
sa(dp1234
g2
S"Knowing that doesn't make it any easier."
p1235
sg4
S'dauphin'
p1236
sg6
I7
sa(dp1237
g2
S'Not her. The girl.'
p1238
sg4
S'dauphin'
p1239
sg6
I4
sa(dp1240
g2
S'Nothing.'
p1241
sg4
S'dauphin'
p1242
sg6
I1
sa(dp1243
g2
S'Now, listen. In a moment the orbits of the moons will become synchronous.'
p1244
sg4
S'dauphin'
p1245
sg6
I13
sa(dp1246
g2
S'Oh, yes.'
p1247
sg4
S'dauphin'
p1248
sg6
I2
sa(dp1249
g2
S'Oh, yes. And there are so many more -- all special - -all so different. And all the different kinds of life-forms.'
p1250
sg4
S'dauphin'
p1251
sg6
I22
sa(dp1252
g2
S'Okay.'
p1253
sg4
S'dauphin'
p1254
sg6
I1
sa(dp1255
g2
S'On Thalos Seven they age the cocoa beans four hundred years.'
p1256
sg4
S'dauphin'
p1257
sg6
I11
sa(dp1258
g2
S'Playing humanoid. Was it fun?'
p1259
sg4
S'dauphin'
p1260
sg6
I5
sa(dp1261
g2
S'Right away.'
p1262
sg4
S'dauphin'
p1263
sg6
I2
sa(dp1264
g2
S'Salia!'
p1265
sg4
S'dauphin'
p1266
sg6
I1
sa(dp1267
g2
S"Salia!  You shouldn't have come."
p1268
sg4
S'dauphin'
p1269
sg6
I5
sa(dp1270
g2
S'Salia, nothing is impossible!'
p1271
sg4
S'dauphin'
p1272
sg6
I4
sa(dp1273
g2
S'Security to crew quarters!'
p1274
sg4
S'dauphin'
p1275
sg6
I4
sa(dp1276
g2
S'Seeing her on the transporter pad was like seeing pure light.  I miss her. I feel so empty.'
p1277
sg4
S'dauphin'
p1278
sg6
I18
sa(dp1279
g2
S"Soon you'll see it for yourself."
p1280
sg4
S'dauphin'
p1281
sg6
I6
sa(dp1282
g2
S'Sorry.'
p1283
sg4
S'dauphin'
p1284
sg6
I1
sa(dp1285
g2
S'That makes you sad?'
p1286
sg4
S'dauphin'
p1287
sg6
I4
sa(dp1288
g2
S"That's silly, Geordi.  Well, since you recommend it... If she'll talk to me, how should I approach her? What would I say?"
p1289
sg4
S'dauphin'
p1290
sg6
I22
sa(dp1291
g2
S'Then, think of what you have to look forward to. This is the best time to be alive.'
p1292
sg4
S'dauphin'
p1293
sg6
I18
sa(dp1294
g2
S"There's a way. I know there is!"
p1295
sg4
S'dauphin'
p1296
sg6
I7
sa(dp1297
g2
S"There's almost nothing in the computer about her."
p1298
sg4
S'dauphin'
p1299
sg6
I8
sa(dp1300
g2
S"There's too many!"
p1301
sg4
S'dauphin'
p1302
sg6
I3
sa(dp1303
g2
S"Very little. There is almost nothing in the ship's computer about Daled Four. What will you do there?"
p1304
sg4
S'dauphin'
p1305
sg6
I18
sa(dp1306
g2
S'Wait!'
p1307
sg4
S'dauphin'
p1308
sg6
I1
sa(dp1309
g2
S'Wait. Computer -- Rosseau Five.'
p1310
sg4
S'dauphin'
p1311
sg6
I5
sa(dp1312
g2
S'Was it fun?'
p1313
sg4
S'dauphin'
p1314
sg6
I3
sa(dp1315
g2
S"We have had enough disguises between us. It's time for the truth."
p1316
sg4
S'dauphin'
p1317
sg6
I12
sa(dp1318
g2
S'What can you tell me?'
p1319
sg4
S'dauphin'
p1320
sg6
I5
sa(dp1321
g2
S'What does the man do?'
p1322
sg4
S'dauphin'
p1323
sg6
I5
sa(dp1324
g2
S'What if nothing occurs to me?'
p1325
sg4
S'dauphin'
p1326
sg6
I6
sa(dp1327
g2
S'What is it? What happened?'
p1328
sg4
S'dauphin'
p1329
sg6
I5
sa(dp1330
g2
S'What usually does?'
p1331
sg4
S'dauphin'
p1332
sg6
I3
sa(dp1333
g2
S'Who are you? No one mentioned we were beaming up such a... a...'
p1334
sg4
S'dauphin'
p1335
sg6
I13
sa(dp1336
g2
S'Why not?'
p1337
sg4
S'dauphin'
p1338
sg6
I2
sa(dp1339
g2
S'Why?'
p1340
sg4
S'dauphin'
p1341
sg6
I1
sa(dp1342
g2
S'With my wild way of life?'
p1343
sg4
S'dauphin'
p1344
sg6
I6
sa(dp1345
g2
S'Yes, well, that might work for Klingons, but I think I should try something less dangerous.'
p1346
sg4
S'dauphin'
p1347
sg6
I16
sa(dp1348
g2
S'Yes.'
p1349
sg4
S'dauphin'
p1350
sg6
I1
sa(dp1351
g2
S"Yes... It's a... say, how did you know that?"
p1352
sg4
S'dauphin'
p1353
sg6
I9
sa(dp1354
g2
S'You already have.'
p1355
sg4
S'dauphin'
p1356
sg6
I3
sa(dp1357
g2
S'You could stay.'
p1358
sg4
S'dauphin'
p1359
sg6
I3
sa(dp1360
g2
S'You want me to stay away from Salia.'
p1361
sg4
S'dauphin'
p1362
sg6
I8
sa(dp1363
g2
S"You've got to be joking. Just because I said she's interesting..."
p1364
sg4
S'dauphin'
p1365
sg6
I11
sa(dp1366
g2
S'A neutrino pulse...'
p1367
sg4
S'enemy'
p1368
sg6
I3
sa(dp1369
g2
S'Captain -- the signal pattern from the neutrino beacon is modulating.'
p1370
sg4
S'enemy'
p1371
sg6
I11
sa(dp1372
g2
S"Captain, the neutrino beacon is operational. We've placed it aboard a class three probe."
p1373
sg4
S'enemy'
p1374
sg6
I14
sa(dp1375
g2
S"He'll be able to show us that he's found it by modifying the pulse..."
p1376
sg4
S'enemy'
p1377
sg6
I14
sa(dp1378
g2
S"Just a background fluctuation, Commander... he hasn't found it yet."
p1379
sg4
S'enemy'
p1380
sg6
I10
sa(dp1381
g2
S'No change in the neutrino beacon signal, sir.'
p1382
sg4
S'enemy'
p1383
sg6
I8
sa(dp1384
g2
S'We could build a portable neutrino source and send it in a probe to the surface. It would be like a beacon.'
p1385
sg4
S'enemy'
p1386
sg6
I22
sa(dp1387
g2
S"But we've got plenty of things left to try."
p1388
sg4
S'ensigns'
p1389
sg6
I9
sa(dp1390
g2
S'He wants the impossible.'
p1391
sg4
S'ensigns'
p1392
sg6
I4
sa(dp1393
g2
S'Maybe if we bypassed the autosequence and decompiled the pattern buffer... ?'
p1394
sg4
S'ensigns'
p1395
sg6
I12
sa(dp1396
g2
S'Sorry, sir.'
p1397
sg4
S'ensigns'
p1398
sg6
I2
sa(dp1399
g2
S'Teremi-thorons.'
p1400
sg4
S'ensigns'
p1401
sg6
I1
sa(dp1402
g2
S"They're one of the most elusive sub-atomic particles known, and they really shred a transporter signal."
p1403
sg4
S'ensigns'
p1404
sg6
I16
sa(dp1405
g2
S'Yes, sir.'
p1406
sg4
S'ensigns'
p1407
sg6
I2
sa(dp1408
g2
S'Approaching ten million kilometers from the neutron star...'
p1409
sg4
S'evolution'
p1410
sg6
I8
sa(dp1411
g2
S'Are you okay?'
p1412
sg4
S'evolution'
p1413
sg6
I3
sa(dp1414
g2
S"But it's just a mechanical problem, right?"
p1415
sg4
S'evolution'
p1416
sg6
I7
sa(dp1417
g2
S'Do you recreate them on a Holodeck?'
p1418
sg4
S'evolution'
p1419
sg6
I7
sa(dp1420
g2
S"Doctor Stubbs, I want to go the Academy. But if I don't, I have other things to live for."
p1421
sg4
S'evolution'
p1422
sg6
I19
sa(dp1423
g2
S'Doctor Stubbs...'
p1424
sg4
S'evolution'
p1425
sg6
I2
sa(dp1426
g2
S'Go ahead.'
p1427
sg4
S'evolution'
p1428
sg6
I2
sa(dp1429
g2
S'Go ahead....'
p1430
sg4
S'evolution'
p1431
sg6
I2
sa(dp1432
g2
S"Guinan, I'm scared. Everything that's been going wrong may be my fault."
p1433
sg4
S'evolution'
p1434
sg6
I12
sa(dp1435
g2
S"Guinan... I didn't think anyone would be here."
p1436
sg4
S'evolution'
p1437
sg6
I8
sa(dp1438
g2
S'How can you be so calm about everything? If I was about to make this kind of breakthrough...'
p1439
sg4
S'evolution'
p1440
sg6
I18
sa(dp1441
g2
S'I always get an A.'
p1442
sg4
S'evolution'
p1443
sg6
I5
sa(dp1444
g2
S"I can't, Eric. There's just too much to do..."
p1445
sg4
S'evolution'
p1446
sg6
I9
sa(dp1447
g2
S'I know.'
p1448
sg4
S'evolution'
p1449
sg6
I2
sa(dp1450
g2
S"I know. I will. If it's true."
p1451
sg4
S'evolution'
p1452
sg6
I7
sa(dp1453
g2
S"I know. It's not that. I just..."
p1454
sg4
S'evolution'
p1455
sg6
I7
sa(dp1456
g2
S"I know. It's okay. Really."
p1457
sg4
S'evolution'
p1458
sg6
I5
sa(dp1459
g2
S'I was just... I had some things to do...'
p1460
sg4
S'evolution'
p1461
sg6
I9
sa(dp1462
g2
S'I was pulling an all-nighter to get my final data... and I fell asleep. When I woke up, I realized the container was still open...  It was just a science project.'
p1463
sg4
S'evolution'
p1464
sg6
I31
sa(dp1465
g2
S"I'm an acting officer... I have responsibilities...."
p1466
sg4
S'evolution'
p1467
sg6
I7
sa(dp1468
g2
S"I'm just checking some traps that I set... to see if I can find out what's happening to the ship."
p1469
sg4
S'evolution'
p1470
sg6
I20
sa(dp1471
g2
S"I'm just setting... traps."
p1472
sg4
S'evolution'
p1473
sg6
I4
sa(dp1474
g2
S"I've been working on my final project for Advanced Genetics. It's on nanotechnology. And I've been studying the nanites we have in the Sickbay genetic supplies. They're just like tiny little robots with gigabytes of mechanical computer memory, tiny enough to enter living cells and conduct repairs. They're supposed to be strictly confined to the lab."
p1475
sg4
S'evolution'
p1476
sg6
I56
sa(dp1477
g2
S"I've done everything anyone has asked of me and more. You don't know... you haven't even been here."
p1478
sg4
S'evolution'
p1479
sg6
I18
sa(dp1480
g2
S"It's German, isn't it?"
p1481
sg4
S'evolution'
p1482
sg6
I4
sa(dp1483
g2
S"It's true. I'm reponsible. I allowed two of the nanites to interact for my school project to increase their capabilities. And... they escaped."
p1484
sg4
S'evolution'
p1485
sg6
I23
sa(dp1486
g2
S"Mom, I think I've made a horrible mistake."
p1487
sg4
S'evolution'
p1488
sg6
I8
sa(dp1489
g2
S"Mom, you don't understand..."
p1490
sg4
S'evolution'
p1491
sg6
I4
sa(dp1492
g2
S'My dad taught it to me when I was little.'
p1493
sg4
S'evolution'
p1494
sg6
I10
sa(dp1495
g2
S"My studies keep me pretty busy. I'm trying to get into the Academy... I earn credits for my work on the Enterprise... but it's not the same as being there..."
p1496
sg4
S'evolution'
p1497
sg6
I30
sa(dp1498
g2
S'Nobody will say that...'
p1499
sg4
S'evolution'
p1500
sg6
I4
sa(dp1501
g2
S"Oh... I can't... I have to check on Doctor Stubbs. He's in Sickbay..."
p1502
sg4
S'evolution'
p1503
sg6
I13
sa(dp1504
g2
S'One billionth of a second.'
p1505
sg4
S'evolution'
p1506
sg6
I5
sa(dp1507
g2
S'Red Alert. You should return to your quarters immediately.'
p1508
sg4
S'evolution'
p1509
sg6
I9
sa(dp1510
g2
S'The burden?'
p1511
sg4
S'evolution'
p1512
sg6
I2
sa(dp1513
g2
S"The captain asked me to tell you that our systems are back to normal and we can make another launch attempt as soon as you're ready."
p1514
sg4
S'evolution'
p1515
sg6
I26
sa(dp1516
g2
S'The ship is not responding.'
p1517
sg4
S'evolution'
p1518
sg6
I5
sa(dp1519
g2
S"They're really harmless. They only have the most basic skills. It's almost impossible that they could be responsible..."
p1520
sg4
S'evolution'
p1521
sg6
I18
sa(dp1522
g2
S"They're running a check to find out what happened. Everything's okay now..."
p1523
sg4
S'evolution'
p1524
sg6
I12
sa(dp1525
g2
S'This is a sample of linear memory crystal from our computer core.'
p1526
sg4
S'evolution'
p1527
sg6
I12
sa(dp1528
g2
S"Two of them. That's all. See, I just wanted to see how they would interact and function in tandem. In my project, I had proposed a theory that they could actually combine their skills to improve their usefulness. And it was working."
p1529
sg4
S'evolution'
p1530
sg6
I42
sa(dp1531
g2
S"Uh, yessir. I'm... very sorry. I'll be right there."
p1532
sg4
S'evolution'
p1533
sg6
I9
sa(dp1534
g2
S"We're at forty million kilometers from the neutron star."
p1535
sg4
S'evolution'
p1536
sg6
I9
sa(dp1537
g2
S"We're running out of time for Doctor Stubbs..."
p1538
sg4
S'evolution'
p1539
sg6
I8
sa(dp1540
g2
S"We're testing a low level gamma field that might reduce their processing speed."
p1541
sg4
S'evolution'
p1542
sg6
I13
sa(dp1543
g2
S'When I heard we were going to be part of your experiment, I read all your published works.'
p1544
sg4
S'evolution'
p1545
sg6
I18
sa(dp1546
g2
S'Yessir.'
p1547
sg4
S'evolution'
p1548
sg6
I1
sa(dp1549
g2
S'You got it. Nice going, Geordi...'
p1550
sg4
S'evolution'
p1551
sg6
I6
sa(dp1552
g2
S"You won't tell anybody..."
p1553
sg4
S'evolution'
p1554
sg6
I4
sa(dp1555
g2
S'Computer, load program, Crusher One.'
p1556
sg4
S'family'
p1557
sg6
I5
sa(dp1558
g2
S'Do you know what it says?'
p1559
sg4
S'family'
p1560
sg6
I6
sa(dp1561
g2
S'Good-bye, Dad.'
p1562
sg4
S'family'
p1563
sg6
I2
sa(dp1564
g2
S'Run program.'
p1565
sg4
S'family'
p1566
sg6
I2
sa(dp1567
g2
S'What kind of message?'
p1568
sg4
S'family'
p1569
sg6
I4
sa(dp1570
g2
S'Why?'
p1571
sg4
S'family'
p1572
sg6
I1
sa(dp1573
g2
S'"Captain?" Of a mining shuttle?'
p1574
sg4
S'final'
p1575
sg6
I5
sa(dp1576
g2
S"And how do you know it'll go for my phaser, not yours?"
p1577
sg4
S'final'
p1578
sg6
I12
sa(dp1579
g2
S'And you were worried about how tough the Captain is?'
p1580
sg4
S'final'
p1581
sg6
I10
sa(dp1582
g2
S'Aye, sir.'
p1583
sg4
S'final'
p1584
sg6
I2
sa(dp1585
g2
S'Because I wanted you to be proud of me.'
p1586
sg4
S'final'
p1587
sg6
I9
sa(dp1588
g2
S"But I think I'm on to something. I've analyzed the sentry's electrical patterns."
p1589
sg4
S'final'
p1590
sg6
I13
sa(dp1591
g2
S"But it didn't turn out the way I thought it would... you kind of -- opened up to me. I got to know you.  Sort of."
p1592
sg4
S'final'
p1593
sg6
I26
sa(dp1594
g2
S'Captain Picard? Wake up...'
p1595
sg4
S'final'
p1596
sg6
I4
sa(dp1597
g2
S'Captain... ?'
p1598
sg4
S'final'
p1599
sg6
I2
sa(dp1600
g2
S'Captain... water!'
p1601
sg4
S'final'
p1602
sg6
I2
sa(dp1603
g2
S'Captain?  Captain Picard!'
p1604
sg4
S'final'
p1605
sg6
I3
sa(dp1606
g2
S'Captain? Remember when we took the shuttlecraft to Starbase Five-One-Five? I was dreading it... six hours alone with you...'
p1607
sg4
S'final'
p1608
sg6
I19
sa(dp1609
g2
S'Dirgo -- move!'
p1610
sg4
S'final'
p1611
sg6
I3
sa(dp1612
g2
S"Don't worry about Captain Picard -- he'll handle them."
p1613
sg4
S'final'
p1614
sg6
I9
sa(dp1615
g2
S'Help me!'
p1616
sg4
S'final'
p1617
sg6
I2
sa(dp1618
g2
S'Hold on... we need to figure out what it is, before we start doing anything to it.'
p1619
sg4
S'final'
p1620
sg6
I17
sa(dp1621
g2
S'How did this happen?'
p1622
sg4
S'final'
p1623
sg6
I4
sa(dp1624
g2
S'How did you find us?'
p1625
sg4
S'final'
p1626
sg6
I5
sa(dp1627
g2
S'I can walk.'
p1628
sg4
S'final'
p1629
sg6
I3
sa(dp1630
g2
S"I don't know what it is. It just registers as a repeating energy pattern..."
p1631
sg4
S'final'
p1632
sg6
I14
sa(dp1633
g2
S'I know, sir, but --'
p1634
sg4
S'final'
p1635
sg6
I5
sa(dp1636
g2
S"I should've tried harder to stop him..."
p1637
sg4
S'final'
p1638
sg6
I7
sa(dp1639
g2
S"I think I can use it to interrupt the sentry's energy pattern... stop it.  Or at least slow it down..."
p1640
sg4
S'final'
p1641
sg6
I20
sa(dp1642
g2
S"I think I've been pretty lucky... no matter what happens. How many people get to serve with -- with Jean-Luc Picard?"
p1643
sg4
S'final'
p1644
sg6
I21
sa(dp1645
g2
S"I think so, sir. The scanning range may be limited, but it's better than nothing."
p1646
sg4
S'final'
p1647
sg6
I15
sa(dp1648
g2
S'I was honored you wanted me along...'
p1649
sg4
S'final'
p1650
sg6
I7
sa(dp1651
g2
S"I'll be back soon."
p1652
sg4
S'final'
p1653
sg6
I4
sa(dp1654
g2
S"I'll try, sir -- but this grid looks about a hundred years old..."
p1655
sg4
S'final'
p1656
sg6
I13
sa(dp1657
g2
S"I'm going to get to the water... I took the transponder element from my communicator... used it to modify the tricorder..."
p1658
sg4
S'final'
p1659
sg6
I21
sa(dp1660
g2
S"I'm not sure, sir... an energy reading."
p1661
sg4
S'final'
p1662
sg6
I7
sa(dp1663
g2
S"I'm sure glad to see you..."
p1664
sg4
S'final'
p1665
sg6
I6
sa(dp1666
g2
S"I've lost navigation --"
p1667
sg4
S'final'
p1668
sg6
I4
sa(dp1669
g2
S'If I could find a way to manipulate the frequency, I might be able to control it.  The Sentry appeared when we started using phasers. Maybe it responds to heat... or to collinated energy...'
p1670
sg4
S'final'
p1671
sg6
I34
sa(dp1672
g2
S"If you want to get out of this, I suggest you listen. Captain Picard is the one who's going to keep us alive --"
p1673
sg4
S'final'
p1674
sg6
I24
sa(dp1675
g2
S'It seems to be some kind of tightly confined annular force field...'
p1676
sg4
S'final'
p1677
sg6
I12
sa(dp1678
g2
S'It worked... !'
p1679
sg4
S'final'
p1680
sg6
I3
sa(dp1681
g2
S"It's possible... the pattern's fairly organized..."
p1682
sg4
S'final'
p1683
sg6
I6
sa(dp1684
g2
S'Keep pressure on that wound!'
p1685
sg4
S'final'
p1686
sg6
I5
sa(dp1687
g2
S'Keep the pressure constant.'
p1688
sg4
S'final'
p1689
sg6
I4
sa(dp1690
g2
S"Low frequency E-M. It's been getting stronger... the closer we get to those mountains."
p1691
sg4
S'final'
p1692
sg6
I14
sa(dp1693
g2
S'Mom!'
p1694
sg4
S'final'
p1695
sg6
I1
sa(dp1696
g2
S"Negative. But sensors are limited. There's an intense magnetic field near the surface."
p1697
sg4
S'final'
p1698
sg6
I13
sa(dp1699
g2
S"No, he's not -- you're going to be fine..."
p1700
sg4
S'final'
p1701
sg6
I9
sa(dp1702
g2
S'No, sir, not at all, it was more of an explanation --'
p1703
sg4
S'final'
p1704
sg6
I12
sa(dp1705
g2
S'No, sir... But that E-M reading? The pattern has changed... and the frequency is peaking a lot higher...'
p1706
sg4
S'final'
p1707
sg6
I18
sa(dp1708
g2
S"No, we can't..."
p1709
sg4
S'final'
p1710
sg6
I3
sa(dp1711
g2
S'No... not yet...'
p1712
sg4
S'final'
p1713
sg6
I3
sa(dp1714
g2
S'Oh, yes sir! I mean -- no, sir.'
p1715
sg4
S'final'
p1716
sg6
I8
sa(dp1717
g2
S"One of the moons of Pentarus Three... it's class M -- barely -- mean temperature fifty-five degrees Celsius..."
p1718
sg4
S'final'
p1719
sg6
I18
sa(dp1720
g2
S"One thing I learned from you... is that you never quit. And I'm not quitting now. I've seen you think yourself out of worse problems... and I'm going to think us out of this one."
p1721
sg4
S'final'
p1722
sg6
I35
sa(dp1723
g2
S'Selenium fibers... electrically deposited.'
p1724
sg4
S'final'
p1725
sg6
I4
sa(dp1726
g2
S'Sir... Dirgo is dead.'
p1727
sg4
S'final'
p1728
sg6
I4
sa(dp1729
g2
S'Sir... please... stay with me...'
p1730
sg4
S'final'
p1731
sg6
I5
sa(dp1732
g2
S"Sir... the past three years... I've lived more than most people do in a lifetime..."
p1733
sg4
S'final'
p1734
sg6
I15
sa(dp1735
g2
S'Sir?'
p1736
sg4
S'final'
p1737
sg6
I1
sa(dp1738
g2
S"That's it! The frequency went to forty."
p1739
sg4
S'final'
p1740
sg6
I7
sa(dp1741
g2
S'The Academy?'
p1742
sg4
S'final'
p1743
sg6
I2
sa(dp1744
g2
S"The E-M pattern again -- the power level's really spiking now..."
p1745
sg4
S'final'
p1746
sg6
I11
sa(dp1747
g2
S"The E-M pattern is back down... it only surged when we tried to get to the water...  Whatever it was we saw... it almost acts like a sentry. To guard the fountain.  As long as we aren't moving toward the water, the wave pattern stays low... right between five and fifteen hertz... Dirgo, walk toward the fountain."
p1748
sg4
S'final'
p1749
sg6
I57
sa(dp1750
g2
S'The port thruster module blew...'
p1751
sg4
S'final'
p1752
sg6
I5
sa(dp1753
g2
S"The readings could be indicating some electromagnetic property in the rocks... but I don't think so."
p1754
sg4
S'final'
p1755
sg6
I16
sa(dp1756
g2
S'Then there has to be a way to de-activate it...'
p1757
sg4
S'final'
p1758
sg6
I10
sa(dp1759
g2
S"There's no evidence that it responds differently to higher settings... we have to figure out our options before we --"
p1760
sg4
S'final'
p1761
sg6
I20
sa(dp1762
g2
S'This is the worst break... ?'
p1763
sg4
S'final'
p1764
sg6
I6
sa(dp1765
g2
S"We -- we don't have any water. Don't you remember? We tried to get to the fountain... and Captain Dirgo..."
p1766
sg4
S'final'
p1767
sg6
I20
sa(dp1768
g2
S"We crashed, sir... we're in a cave..."
p1769
sg4
S'final'
p1770
sg6
I7
sa(dp1771
g2
S"We'll have to manually trip the bypass from the main engine to the thrusters..."
p1772
sg4
S'final'
p1773
sg6
I14
sa(dp1774
g2
S"We've got power reconfigured, Captain."
p1775
sg4
S'final'
p1776
sg6
I5
sa(dp1777
g2
S'What does he teach?'
p1778
sg4
S'final'
p1779
sg6
I4
sa(dp1780
g2
S'What truth?'
p1781
sg4
S'final'
p1782
sg6
I2
sa(dp1783
g2
S'When the sun went down, the temperature really dropped.  This should help.'
p1784
sg4
S'final'
p1785
sg6
I12
sa(dp1786
g2
S"Yes, sir, I know, but I was in the middle of an experiment using some volatile compounds and I couldn't just leave them lying out --"
p1787
sg4
S'final'
p1788
sg6
I26
sa(dp1789
g2
S'Yes, sir.'
p1790
sg4
S'final'
p1791
sg6
I2
sa(dp1792
g2
S'Yes, sir.'
p1793
sg4
S'final'
p1794
sg6
I2
sa(dp1795
g2
S'Yes, sir...'
p1796
sg4
S'final'
p1797
sg6
I2
sa(dp1798
g2
S'Yes, sir?'
p1799
sg4
S'final'
p1800
sg6
I2
sa(dp1801
g2
S'Yes...'
p1802
sg4
S'final'
p1803
sg6
I1
sa(dp1804
g2
S"You don't know this... nobody knows this, because I never told anybody... but a lot of what I've worked for... school, and science projects, and getting into the Academy... I've done it because... because..."
p1805
sg4
S'final'
p1806
sg6
I34
sa(dp1807
g2
S"You don't know what you're talking about."
p1808
sg4
S'final'
p1809
sg6
I7
sa(dp1810
g2
S"You have a broken leg... Your left arm is... I think there's a fracture there, too. And you took a bad blow to the head. But we're getting the bleeding under control."
p1811
sg4
S'final'
p1812
sg6
I32
sa(dp1813
g2
S'You have water!'
p1814
sg4
S'final'
p1815
sg6
I3
sa(dp1816
g2
S"You'll handle him, sir."
p1817
sg4
S'final'
p1818
sg6
I4
sa(dp1819
g2
S"You're not going to die... I won't let you die. I'll get to the water and I'll keep you alive until they find us. I promise you."
p1820
sg4
S'final'
p1821
sg6
I27
sa(dp1822
g2
S'A little... he only needed help with statistical mechanics.'
p1823
sg4
S'firstduty'
p1824
sg6
I9
sa(dp1825
g2
S"Captain Picard called me to the Enterprise... when I got there he said he'd figured it out... the Kolvoord manuever, the cover-up, everything. He said that if I didn't come forward now and tell the truth... he would."
p1826
sg4
S'firstduty'
p1827
sg6
I38
sa(dp1828
g2
S'Captain.'
p1829
sg4
S'firstduty'
p1830
sg6
I1
sa(dp1831
g2
S'Captain...'
p1832
sg4
S'firstduty'
p1833
sg6
I1
sa(dp1834
g2
S'Come in.'
p1835
sg4
S'firstduty'
p1836
sg6
I2
sa(dp1837
g2
S"Don't try to protect me, Mom... Please just... stay out of it."
p1838
sg4
S'firstduty'
p1839
sg6
I12
sa(dp1840
g2
S'Excuse me, Mom, Captain... but Nick and I have some things to talk about.'
p1841
sg4
S'firstduty'
p1842
sg6
I14
sa(dp1843
g2
S'Good-bye, Captain.'
p1844
sg4
S'firstduty'
p1845
sg6
I2
sa(dp1846
g2
S"He could do it...  He just didn't like to."
p1847
sg4
S'firstduty'
p1848
sg6
I9
sa(dp1849
g2
S"He did exactly what he said he would -- he protected the team.  I feel awful... I've let everybody down... my friends, Mom, you."
p1850
sg4
S'firstduty'
p1851
sg6
I24
sa(dp1852
g2
S'He was on my port quarter, about fifty meters away.'
p1853
sg4
S'firstduty'
p1854
sg6
I10
sa(dp1855
g2
S'Hey, wait a minute...'
p1856
sg4
S'firstduty'
p1857
sg6
I4
sa(dp1858
g2
S'Hi.'
p1859
sg4
S'firstduty'
p1860
sg6
I1
sa(dp1861
g2
S'I have none.'
p1862
sg4
S'firstduty'
p1863
sg6
I3
sa(dp1864
g2
S"I know you're trying to help, sir... but it seems like I haven't talked about anything else for the past two days. I don't want to go over it all again."
p1865
sg4
S'firstduty'
p1866
sg6
I31
sa(dp1867
g2
S'I know.'
p1868
sg4
S'firstduty'
p1869
sg6
I2
sa(dp1870
g2
S'I remember.'
p1871
sg4
S'firstduty'
p1872
sg6
I2
sa(dp1873
g2
S'I said the accident occurred after the loop, and it did.'
p1874
sg4
S'firstduty'
p1875
sg6
I11
sa(dp1876
g2
S'I think so.'
p1877
sg4
S'firstduty'
p1878
sg6
I3
sa(dp1879
g2
S'I understand.'
p1880
sg4
S'firstduty'
p1881
sg6
I2
sa(dp1882
g2
S"I'm not going to lie to them again, Nick... I can't live with it."
p1883
sg4
S'firstduty'
p1884
sg6
I14
sa(dp1885
g2
S'I... choose not to answer, sir.'
p1886
sg4
S'firstduty'
p1887
sg6
I6
sa(dp1888
g2
S'It was banned by the Academy following a training accident.'
p1889
sg4
S'firstduty'
p1890
sg6
I10
sa(dp1891
g2
S"It's the Kolvoord Starburst."
p1892
sg4
S'firstduty'
p1893
sg6
I4
sa(dp1894
g2
S"It's wrong..."
p1895
sg4
S'firstduty'
p1896
sg6
I2
sa(dp1897
g2
S"Josh didn't let us down, sir. It wasn't his fault."
p1898
sg4
S'firstduty'
p1899
sg6
I10
sa(dp1900
g2
S"Mom. No.  You can't do that."
p1901
sg4
S'firstduty'
p1902
sg6
I6
sa(dp1903
g2
S"Mom... that doesn't make any sense..."
p1904
sg4
S'firstduty'
p1905
sg6
I6
sa(dp1906
g2
S'Nick, if we all come forward together... tell Admiral Brand---'
p1907
sg4
S'firstduty'
p1908
sg6
I10
sa(dp1909
g2
S'Nick...'
p1910
sg4
S'firstduty'
p1911
sg6
I1
sa(dp1912
g2
S"Nick... I don't think I can do this."
p1913
sg4
S'firstduty'
p1914
sg6
I8
sa(dp1915
g2
S'No, sir.'
p1916
sg4
S'firstduty'
p1917
sg6
I2
sa(dp1918
g2
S'No, sir.'
p1919
sg4
S'firstduty'
p1920
sg6
I2
sa(dp1921
g2
S'No, sir. I was just going over my deposition for tomorrow.'
p1922
sg4
S'firstduty'
p1923
sg6
I11
sa(dp1924
g2
S"No. I don't think so. Thank you."
p1925
sg4
S'firstduty'
p1926
sg6
I7
sa(dp1927
g2
S"No. I'm going to tell them what happened."
p1928
sg4
S'firstduty'
p1929
sg6
I8
sa(dp1930
g2
S'No... but he still knew exactly what happened.'
p1931
sg4
S'firstduty'
p1932
sg6
I8
sa(dp1933
g2
S"Not too bad... the arm's still a little sore."
p1934
sg4
S'firstduty'
p1935
sg6
I9
sa(dp1936
g2
S"Once we'd cleared the moon... Mister Locarno led us into a Yeager loop... about nine seconds later, everything seemed to happen at once: the proximity alarm went off, I tried to veer away, but it was too late... I was hit... I lost control of the ship and a power coupling exploded in the cockpit... I don't know how, but I managed to activate my escape transporter... the next thing I remember was finding myself in the emergency evac station on Mimas with the rest of the squadron... except Josh."
p1937
sg4
S'firstduty'
p1938
sg6
I90
sa(dp1939
g2
S'Sir.'
p1940
sg4
S'firstduty'
p1941
sg6
I1
sa(dp1942
g2
S'Sir... I would like to add something to my testimony.'
p1943
sg4
S'firstduty'
p1944
sg6
I10
sa(dp1945
g2
S"That's nice."
p1946
sg4
S'firstduty'
p1947
sg6
I2
sa(dp1948
g2
S"The accident was not Josh's fault."
p1949
sg4
S'firstduty'
p1950
sg6
I6
sa(dp1951
g2
S'The ships begin in a diamond slot formation. They climb and loop backwards at a steep angle... at the peak of the loop, all five ships flip over and accelerate in a new direction.'
p1952
sg4
S'firstduty'
p1953
sg6
I34
sa(dp1954
g2
S'The ski trip...  We went to Calgary last month... Josh forgot his sweater... so he borrowed one of mine.'
p1955
sg4
S'firstduty'
p1956
sg6
I19
sa(dp1957
g2
S'They know, Nick. They know what we did.'
p1958
sg4
S'firstduty'
p1959
sg6
I8
sa(dp1960
g2
S"They should've expelled all of us."
p1961
sg4
S'firstduty'
p1962
sg6
I6
sa(dp1963
g2
S'This is my squadron leader, Nicholas Locarno... This is Captain Jean-Luc Picard of the Enterprise... my mother, Doctor Beverly Crusher.'
p1964
sg4
S'firstduty'
p1965
sg6
I20
sa(dp1966
g2
S"This is the beginning of our run toward Titan. I'm on the right wing."
p1967
sg4
S'firstduty'
p1968
sg6
I14
sa(dp1969
g2
S"We don't know that..."
p1970
sg4
S'firstduty'
p1971
sg6
I4
sa(dp1972
g2
S"We just received the signal to begin the diamond slot formation. That's Cadet Locarno coming into view."
p1973
sg4
S'firstduty'
p1974
sg6
I17
sa(dp1975
g2
S"We knew it was prohibited and that it would be dangerous, but we wanted to do something spectacular for the commencement demonstration... So we pushed Josh... and he wasn't ready. We thought we could do it... we thought we could do anything. We were wrong... and Josh died."
p1976
sg4
S'firstduty'
p1977
sg6
I48
sa(dp1978
g2
S"We should be coming out of Titan's gravity well about now..."
p1979
sg4
S'firstduty'
p1980
sg6
I11
sa(dp1981
g2
S"We're Starfleet cadets, we have a duty to the truth."
p1982
sg4
S'firstduty'
p1983
sg6
I10
sa(dp1984
g2
S'Why?'
p1985
sg4
S'firstduty'
p1986
sg6
I1
sa(dp1987
g2
S'Yes, sir.'
p1988
sg4
S'firstduty'
p1989
sg6
I2
sa(dp1990
g2
S'Yes, sir.'
p1991
sg4
S'firstduty'
p1992
sg6
I2
sa(dp1993
g2
S'Yes, sir.'
p1994
sg4
S'firstduty'
p1995
sg6
I2
sa(dp1996
g2
S'Yes, sir.  Captain... thank you.'
p1997
sg4
S'firstduty'
p1998
sg6
I5
sa(dp1999
g2
S'Yes.'
p2000
sg4
S'firstduty'
p2001
sg6
I1
sa(dp2002
g2
S"Yesterday, I testified that the crash occurred following a Yeager loop. That's not entirely true.  We did perform the loop. But after that, we broke formation... and attempted a Kolvoord Starburst."
p2003
sg4
S'firstduty'
p2004
sg6
I31
sa(dp2005
g2
S"You said we wouldn't have to lie to them. We all agreed not to lie to them."
p2006
sg4
S'firstduty'
p2007
sg6
I17
sa(dp2008
g2
S"You'd let me do it, wouldn't you? You'd let me throw my career away just to save your neck."
p2009
sg4
S'firstduty'
p2010
sg6
I19
sa(dp2011
g2
S"You're asking me to call Captain Picard a liar."
p2012
sg4
S'firstduty'
p2013
sg6
I9
sa(dp2014
g2
S'... The pleasure center of the brain. Whatever this game does, it must feel pretty good.'
p2015
sg4
S'game'
p2016
sg6
I16
sa(dp2017
g2
S"... isn't always fair. I know that law."
p2018
sg4
S'game'
p2019
sg6
I8
sa(dp2020
g2
S"A couple of light years can't keep good friends apart."
p2021
sg4
S'game'
p2022
sg6
I10
sa(dp2023
g2
S"After the Enterprise, I thought it would be a breeze... but there's a lot more to learn besides starship operations.  How was your first year?"
p2024
sg4
S'game'
p2025
sg6
I25
sa(dp2026
g2
S"And at the same time, it seems to be stimulating the brain's reasoning center... I don't know what that's all about..."
p2027
sg4
S'game'
p2028
sg6
I21
sa(dp2029
g2
S'And everybody has. Except us.'
p2030
sg4
S'game'
p2031
sg6
I5
sa(dp2032
g2
S"And now you're here."
p2033
sg4
S'game'
p2034
sg6
I4
sa(dp2035
g2
S"And you'll be happy to know, I took your advice. The first week I was there, I went to meet Boothby."
p2036
sg4
S'game'
p2037
sg6
I21
sa(dp2038
g2
S"Are you kidding? It's gotta be done by the computer."
p2039
sg4
S'game'
p2040
sg6
I10
sa(dp2041
g2
S'Aye sir.'
p2042
sg4
S'game'
p2043
sg6
I2
sa(dp2044
g2
S"Better keep the mock-ups with us.  We can't trust anyone now. Not even the captain."
p2045
sg4
S'game'
p2046
sg6
I15
sa(dp2047
g2
S'Boothby said he once found you carving those initials into his prized elm tree.'
p2048
sg4
S'game'
p2049
sg6
I14
sa(dp2050
g2
S'Captain...'
p2051
sg4
S'game'
p2052
sg6
I1
sa(dp2053
g2
S"Chief O'Brien!"
p2054
sg4
S'game'
p2055
sg6
I2
sa(dp2056
g2
S'Computer -- transport program Crusher One!'
p2057
sg4
S'game'
p2058
sg6
I6
sa(dp2059
g2
S'Computer, enhance frontal lobe -- full spectrum.'
p2060
sg4
S'game'
p2061
sg6
I7
sa(dp2062
g2
S'Conduits twelve and twenty-two are still down for testing.'
p2063
sg4
S'game'
p2064
sg6
I9
sa(dp2065
g2
S'Congratulations on little Molly.'
p2066
sg4
S'game'
p2067
sg6
I4
sa(dp2068
g2
S"Correct me if I'm wrong, but this looks like a psychotropic reaction."
p2069
sg4
S'game'
p2070
sg6
I12
sa(dp2071
g2
S'Deck thirty-six.'
p2072
sg4
S'game'
p2073
sg6
I2
sa(dp2074
g2
S"Don't worry, Data... I can't dance either."
p2075
sg4
S'game'
p2076
sg6
I7
sa(dp2077
g2
S"Don't worry, it'll be on-line in a few minutes. I'm way ahead of you."
p2078
sg4
S'game'
p2079
sg6
I14
sa(dp2080
g2
S'Excuse me?'
p2081
sg4
S'game'
p2082
sg6
I2
sa(dp2083
g2
S"Fine, sir... but that's not why I'm here."
p2084
sg4
S'game'
p2085
sg6
I8
sa(dp2086
g2
S'Game?'
p2087
sg4
S'game'
p2088
sg6
I1
sa(dp2089
g2
S'Have you played it?'
p2090
sg4
S'game'
p2091
sg6
I4
sa(dp2092
g2
S'Heavy synaptic activity... all over the place...'
p2093
sg4
S'game'
p2094
sg6
I7
sa(dp2095
g2
S'Help me compile the forcefield overrides...'
p2096
sg4
S'game'
p2097
sg6
I6
sa(dp2098
g2
S'Hi.'
p2099
sg4
S'game'
p2100
sg6
I1
sa(dp2101
g2
S'How many laws do you have?'
p2102
sg4
S'game'
p2103
sg6
I6
sa(dp2104
g2
S"I created a site to site transporter program. If things get difficult, this'll keep us one step ahead...  Did you get a chance to access the security tracking codes?"
p2105
sg4
S'game'
p2106
sg6
I29
sa(dp2107
g2
S"I did some preliminary tests on the game. What I found leads me to believe it may have harmful side effects. Specifically sir -- I think it's psychotropically addictive."
p2108
sg4
S'game'
p2109
sg6
I29
sa(dp2110
g2
S"I don't know what to make of this. There's brain activity... all his systems seem to be working."
p2111
sg4
S'game'
p2112
sg6
I18
sa(dp2113
g2
S"I guess you're right."
p2114
sg4
S'game'
p2115
sg6
I4
sa(dp2116
g2
S'I managed to reconnect his positronic matrix.'
p2117
sg4
S'game'
p2118
sg6
I7
sa(dp2119
g2
S'I need to change now.'
p2120
sg4
S'game'
p2121
sg6
I5
sa(dp2122
g2
S'I think we should take a look at him.'
p2123
sg4
S'game'
p2124
sg6
I9
sa(dp2125
g2
S"I think we're gonna be okay. I've just got one more thing to do..."
p2126
sg4
S'game'
p2127
sg6
I14
sa(dp2128
g2
S'I wonder how it works?'
p2129
sg4
S'game'
p2130
sg6
I5
sa(dp2131
g2
S"I'd better go."
p2132
sg4
S'game'
p2133
sg6
I3
sa(dp2134
g2
S"I'd better talk to the captain."
p2135
sg4
S'game'
p2136
sg6
I6
sa(dp2137
g2
S"I'd want to know more about it first.  We could hook it up to a computer. The medical programs can simulate human brain responses..."
p2138
sg4
S'game'
p2139
sg6
I24
sa(dp2140
g2
S"I'll let you know, Data."
p2141
sg4
S'game'
p2142
sg6
I5
sa(dp2143
g2
S"I'll try modifying the planetary scanners."
p2144
sg4
S'game'
p2145
sg6
I6
sa(dp2146
g2
S"I'm Wesley, by the way... Wesley Crusher."
p2147
sg4
S'game'
p2148
sg6
I7
sa(dp2149
g2
S"I'm glad."
p2150
sg4
S'game'
p2151
sg6
I2
sa(dp2152
g2
S"I've gotta go work on the sensor relays. But later, I want a chance to even the score.  Ten Forward, nineteen hundred hours. Will you join me for coffee?"
p2153
sg4
S'game'
p2154
sg6
I29
sa(dp2155
g2
S'It looks like some of his positronic links have been severed.'
p2156
sg4
S'game'
p2157
sg6
I11
sa(dp2158
g2
S"It's strange, don't you think? Everybody playing it all the time..."
p2159
sg4
S'game'
p2160
sg6
I11
sa(dp2161
g2
S"It's working..."
p2162
sg4
S'game'
p2163
sg6
I2
sa(dp2164
g2
S'Law number one hundred and three...'
p2165
sg4
S'game'
p2166
sg6
I6
sa(dp2167
g2
S"Let's see... I had Novakovich for anthropology... and Horne for creative writing..."
p2168
sg4
S'game'
p2169
sg6
I12
sa(dp2170
g2
S'Like what?'
p2171
sg4
S'game'
p2172
sg6
I2
sa(dp2173
g2
S'Maybe I should give Geordi a hand...'
p2174
sg4
S'game'
p2175
sg6
I7
sa(dp2176
g2
S'Maybe later.  Any word on Data?'
p2177
sg4
S'game'
p2178
sg6
I6
sa(dp2179
g2
S"Maybe there's more going on here than we thought. Someone could be trying to use the game -- for some purpose other than pleasure..."
p2180
sg4
S'game'
p2181
sg6
I24
sa(dp2182
g2
S'Me too.'
p2183
sg4
S'game'
p2184
sg6
I2
sa(dp2185
g2
S'Me too. I was stopped twice in the corridor.'
p2186
sg4
S'game'
p2187
sg6
I9
sa(dp2188
g2
S'Mom...'
p2189
sg4
S'game'
p2190
sg6
I1
sa(dp2191
g2
S'Mom?'
p2192
sg4
S'game'
p2193
sg6
I1
sa(dp2194
g2
S'My mom has one. She was trying to get me to play it.'
p2195
sg4
S'game'
p2196
sg6
I13
sa(dp2197
g2
S"No problem. I'll compress the signal flow..."
p2198
sg4
S'game'
p2199
sg6
I7
sa(dp2200
g2
S'No...'
p2201
sg4
S'game'
p2202
sg6
I1
sa(dp2203
g2
S'No...'
p2204
sg4
S'game'
p2205
sg6
I1
sa(dp2206
g2
S'Not that I can tell. He took me on a grand tour... showed me every single blade of grass, practically.'
p2207
sg4
S'game'
p2208
sg6
I20
sa(dp2209
g2
S"Now why won't these register... ?"
p2210
sg4
S'game'
p2211
sg6
I6
sa(dp2212
g2
S"Oh. Well, do you think it'd be alright if I stopped by... just to say hi?"
p2213
sg4
S'game'
p2214
sg6
I16
sa(dp2215
g2
S"Okay... I've loaded the neurological behavior program."
p2216
sg4
S'game'
p2217
sg6
I7
sa(dp2218
g2
S'On my way, sir.'
p2219
sg4
S'game'
p2220
sg6
I4
sa(dp2221
g2
S'Only two people on board know enough about Data to have done something like this. Commander La Forge... and my mother.'
p2222
sg4
S'game'
p2223
sg6
I21
sa(dp2224
g2
S'Praestat quam prius.'
p2225
sg4
S'game'
p2226
sg6
I3
sa(dp2227
g2
S'Really? Mine was a warp coil.'
p2228
sg4
S'game'
p2229
sg6
I6
sa(dp2230
g2
S'Right. And he just happened to get injured at the same time this game was brought on board.'
p2231
sg4
S'game'
p2232
sg6
I18
sa(dp2233
g2
S'Robin Lefler -- from engineering.'
p2234
sg4
S'game'
p2235
sg6
I5
sa(dp2236
g2
S'Robin... ?'
p2237
sg4
S'game'
p2238
sg6
I2
sa(dp2239
g2
S'She said no thanks.'
p2240
sg4
S'game'
p2241
sg6
I4
sa(dp2242
g2
S'Sir... what do the initials S-P stand for?'
p2243
sg4
S'game'
p2244
sg6
I8
sa(dp2245
g2
S'Sir?'
p2246
sg4
S'game'
p2247
sg6
I1
sa(dp2248
g2
S'So... where is everyone? Is my mom around?'
p2249
sg4
S'game'
p2250
sg6
I8
sa(dp2251
g2
S"Somebody's got to kill those rumors you keep hearing about me."
p2252
sg4
S'game'
p2253
sg6
I11
sa(dp2254
g2
S'Sorry to bother you, Captain.'
p2255
sg4
S'game'
p2256
sg6
I5
sa(dp2257
g2
S'Sorry.'
p2258
sg4
S'game'
p2259
sg6
I1
sa(dp2260
g2
S'Sounds lonely.'
p2261
sg4
S'game'
p2262
sg6
I2
sa(dp2263
g2
S"Speed up the processor and we'll find out."
p2264
sg4
S'game'
p2265
sg6
I8
sa(dp2266
g2
S'Still nothing...  Here.'
p2267
sg4
S'game'
p2268
sg6
I3
sa(dp2269
g2
S'Tell me about it. My first week there, a guy named Adam Martoni reprogrammed the sonic shower to cover me with mud. It took me a while, but I got him back pretty good...'
p2270
sg4
S'game'
p2271
sg6
I34
sa(dp2272
g2
S'Thank you, sir.'
p2273
sg4
S'game'
p2274
sg6
I3
sa(dp2275
g2
S'Thanks, Mom.'
p2276
sg4
S'game'
p2277
sg6
I2
sa(dp2278
g2
S'Thanks, Worf.'
p2279
sg4
S'game'
p2280
sg6
I2
sa(dp2281
g2
S'Thanks.'
p2282
sg4
S'game'
p2283
sg6
I1
sa(dp2284
g2
S'Thanks.'
p2285
sg4
S'game'
p2286
sg6
I1
sa(dp2287
g2
S'Thanks.'
p2288
sg4
S'game'
p2289
sg6
I1
sa(dp2290
g2
S"That'd be great, sir."
p2291
sg4
S'game'
p2292
sg6
I4
sa(dp2293
g2
S"That's right."
p2294
sg4
S'game'
p2295
sg6
I2
sa(dp2296
g2
S"The game initiates a serotonin cascade in the frontal lobe of the brain. Now I know that's nothing conclusive... but it could be the reason people are so attracted to it."
p2297
sg4
S'game'
p2298
sg6
I31
sa(dp2299
g2
S"The signal stops here. Below his cognitive processor.  There's some kind of damage... almost undetectable...  Turn on the viewer."
p2300
sg4
S'game'
p2301
sg6
I19
sa(dp2302
g2
S"There might be a signal breach somewhere... between his brain and his body. Let's map his nervous system... see if we can isolate a weak link..."
p2303
sg4
S'game'
p2304
sg6
I26
sa(dp2305
g2
S"There's a game going around... something Commander Riker brought back from Risa. A little device that hooks around the ear..."
p2306
sg4
S'game'
p2307
sg6
I20
sa(dp2308
g2
S"There's something else bothering me about all this -- if the game is addictive... there's only one person on the ship we can be sure wouldn't be affected by it..."
p2309
sg4
S'game'
p2310
sg6
I30
sa(dp2311
g2
S"This isn't fair. I know nothing about you."
p2312
sg4
S'game'
p2313
sg6
I8
sa(dp2314
g2
S'This sensor pad should allow the computer to process whatever information the game throws at it.'
p2315
sg4
S'game'
p2316
sg6
I16
sa(dp2317
g2
S"Uh... there's another side to that story..."
p2318
sg4
S'game'
p2319
sg6
I7
sa(dp2320
g2
S"Wait a second... look at this. Serotonin levels are way off. Let's do a neurochemical analysis..."
p2321
sg4
S'game'
p2322
sg6
I16
sa(dp2323
g2
S"We'll spend lots of time together. I promise."
p2324
sg4
S'game'
p2325
sg6
I8
sa(dp2326
g2
S"Well, actually... I'm running behind schedule for a dinner date."
p2327
sg4
S'game'
p2328
sg6
I10
sa(dp2329
g2
S"Well... yeah. It's fun to be surprised."
p2330
sg4
S'game'
p2331
sg6
I7
sa(dp2332
g2
S'What are these laws you keep talking about?'
p2333
sg4
S'game'
p2334
sg6
I8
sa(dp2335
g2
S'What are you doing?'
p2336
sg4
S'game'
p2337
sg6
I4
sa(dp2338
g2
S'What is it?'
p2339
sg4
S'game'
p2340
sg6
I3
sa(dp2341
g2
S"What's going on in the prefrontal cortex?"
p2342
sg4
S'game'
p2343
sg6
I7
sa(dp2344
g2
S'What? Oh!'
p2345
sg4
S'game'
p2346
sg6
I2
sa(dp2347
g2
S"When you get there, start accessing the codes for the security tracking system. There's something I want to try..."
p2348
sg4
S'game'
p2349
sg6
I19
sa(dp2350
g2
S'Who started that birthmark rumor, anyway?'
p2351
sg4
S'game'
p2352
sg6
I6
sa(dp2353
g2
S'Why do I get the feeling you already know me?'
p2354
sg4
S'game'
p2355
sg6
I10
sa(dp2356
g2
S'Yeah, I know. "The Dancing Doctor." She tried to teach me. I just don\'t seem to have the knack.'
p2357
sg4
S'game'
p2358
sg6
I19
sa(dp2359
g2
S'Yeah... it sure does.'
p2360
sg4
S'game'
p2361
sg6
I4
sa(dp2362
g2
S'Yeah... they still hold it every year.'
p2363
sg4
S'game'
p2364
sg6
I7
sa(dp2365
g2
S'You bet it was. For a second there, I thought I was on the wrong ship.'
p2366
sg4
S'game'
p2367
sg6
I16
sa(dp2368
g2
S'You have a funny way of looking at conduit configuration. But it works.'
p2369
sg4
S'game'
p2370
sg6
I13
sa(dp2371
g2
S'You too.'
p2372
sg4
S'game'
p2373
sg6
I2
sa(dp2374
g2
S"... that space and time and thought aren't... well, aren't the separate things they seem to be?"
p2375
sg4
S'gonebefore'
p2376
sg6
I17
sa(dp2377
g2
S'But, when this all happened, I was watching his assistant and...'
p2378
sg4
S'gonebefore'
p2379
sg6
I11
sa(dp2380
g2
S"Excuse me, Commander Riker. I don't think he did it... I think it was..."
p2381
sg4
S'gonebefore'
p2382
sg6
I14
sa(dp2383
g2
S'He is very weak.'
p2384
sg4
S'gonebefore'
p2385
sg6
I4
sa(dp2386
g2
S"He isn't, Captain. I know he isn't."
p2387
sg4
S'gonebefore'
p2388
sg6
I7
sa(dp2389
g2
S'He phased.'
p2390
sg4
S'gonebefore'
p2391
sg6
I2
sa(dp2392
g2
S"He's too tired.  Why don't you do it by yourself?"
p2393
sg4
S'gonebefore'
p2394
sg6
I10
sa(dp2395
g2
S"I can call my mother. She's a doctor..."
p2396
sg4
S'gonebefore'
p2397
sg6
I8
sa(dp2398
g2
S'I... I just thought the formula you were using said something like that...'
p2399
sg4
S'gonebefore'
p2400
sg6
I13
sa(dp2401
g2
S"If you don't mind, sir, I'd like to sit here awhile. I'll tell her later."
p2402
sg4
S'gonebefore'
p2403
sg6
I15
sa(dp2404
g2
S'Is Mister Kosinski like he sounds? A joke?'
p2405
sg4
S'gonebefore'
p2406
sg6
I8
sa(dp2407
g2
S'Is he going to be all right?'
p2408
sg4
S'gonebefore'
p2409
sg6
I7
sa(dp2410
g2
S"It's quite all right, sir, I understand."
p2411
sg4
S'gonebefore'
p2412
sg6
I7
sa(dp2413
g2
S"Mom... he's my friend."
p2414
sg4
S'gonebefore'
p2415
sg6
I4
sa(dp2416
g2
S'My name is Wesley, Mister Riker.'
p2417
sg4
S'gonebefore'
p2418
sg6
I6
sa(dp2419
g2
S'Parts of him just disappeared, then came back. No one else was paying attention to him the first time.'
p2420
sg4
S'gonebefore'
p2421
sg6
I19
sa(dp2422
g2
S'Sorry, sir...'
p2423
sg4
S'gonebefore'
p2424
sg6
I2
sa(dp2425
g2
S'Whatever happened to you... was it part of what happened to the ship?'
p2426
sg4
S'gonebefore'
p2427
sg6
I13
sa(dp2428
g2
S"Mister Riker...  ... it's too soon for this..."
p2429
sg4
S'hideq'
p2430
sg6
I8
sa(dp2431
g2
S"No, I'd just like to get there on my own. Honest!"
p2432
sg4
S'hideq'
p2433
sg6
I11
sa(dp2434
g2
S"What's happening, Commander Riker? I was sitting in school..."
p2435
sg4
S'hideq'
p2436
sg6
I9
sa(dp2437
g2
S'Why not, sir? You helped make me a bridge officer...  ... an acting ensign.'
p2438
sg4
S'hideq'
p2439
sg6
I14
sa(dp2440
g2
S'Worf!'
p2441
sg4
S'hideq'
p2442
sg6
I1
sa(dp2443
g2
S'Zero-zero-eight, Mark, three-three-nine, sir.'
p2444
sg4
S'hideq'
p2445
sg6
I4
sa(dp2446
g2
S'A bargaining chip?'
p2447
sg4
S'highground'
p2448
sg6
I3
sa(dp2449
g2
S'Commander Riker?'
p2450
sg4
S'highground'
p2451
sg6
I2
sa(dp2452
g2
S'Data, look at it... the faint nuclear vibration is consistent... and Elway used an isolated field coil just like this one.'
p2453
sg4
S'highground'
p2454
sg6
I21
sa(dp2455
g2
S'Good luck.'
p2456
sg4
S'highground'
p2457
sg6
I2
sa(dp2458
g2
S'Got it.'
p2459
sg4
S'highground'
p2460
sg6
I2
sa(dp2461
g2
S'How could something this small manage to get them anywhere?'
p2462
sg4
S'highground'
p2463
sg6
I10
sa(dp2464
g2
S'I understand.'
p2465
sg4
S'highground'
p2466
sg6
I2
sa(dp2467
g2
S"I was just part of the team.  It's good to have you back.  Both of you. Sir."
p2468
sg4
S'highground'
p2469
sg6
I17
sa(dp2470
g2
S"I've got a subspace reflection. It's a dimensional shift..."
p2471
sg4
S'highground'
p2472
sg6
I9
sa(dp2473
g2
S'More subspace reflections...'
p2474
sg4
S'highground'
p2475
sg6
I3
sa(dp2476
g2
S'No, sir, the readings are --'
p2477
sg4
S'highground'
p2478
sg6
I6
sa(dp2479
g2
S'Nuclear vibration...'
p2480
sg4
S'highground'
p2481
sg6
I2
sa(dp2482
g2
S'Request permission to be on the away team, sir.'
p2483
sg4
S'highground'
p2484
sg6
I9
sa(dp2485
g2
S'Sir, the next time the Ansata use the dimensional jump we should be able to get a fix on their power source.'
p2486
sg4
S'highground'
p2487
sg6
I22
sa(dp2488
g2
S'Wait a minute... computer, call up files on... what was it called...  We spent an hour on it in my astral physics course last year... folded space transport...'
p2489
sg4
S'highground'
p2490
sg6
I28
sa(dp2491
g2
S"We've pinpointed the Ansata base some three hundred kilometers from the city, on the southern tip of the continent."
p2492
sg4
S'highground'
p2493
sg6
I19
sa(dp2494
g2
S"Yes... computer, files on the Elway Theorem... what if they're moving inter-dimensionally?"
p2495
sg4
S'highground'
p2496
sg6
I12
sa(dp2497
g2
S"A coil surge wouldn't have resulted in a field dissipation."
p2498
sg4
S'hollow'
p2499
sg6
I10
sa(dp2500
g2
S'And I shut him down.  Poor Broccoli.'
p2501
sg4
S'hollow'
p2502
sg6
I7
sa(dp2503
g2
S'And a twisted glass...'
p2504
sg4
S'hollow'
p2505
sg6
I4
sa(dp2506
g2
S"But I thought that's the point of the briefing... to discuss different approaches..."
p2507
sg4
S'hollow'
p2508
sg6
I13
sa(dp2509
g2
S'Could either one be causing all these malfunctions?'
p2510
sg4
S'hollow'
p2511
sg6
I8
sa(dp2512
g2
S'Could the fuel inlet servos be caught in cycle?'
p2513
sg4
S'hollow'
p2514
sg6
I9
sa(dp2515
g2
S"It's a joke, Data... you know, a nickname."
p2516
sg4
S'hollow'
p2517
sg6
I8
sa(dp2518
g2
S'Not for over a century.'
p2519
sg4
S'hollow'
p2520
sg6
I5
sa(dp2521
g2
S'Routing... ready for engine core injection.'
p2522
sg4
S'hollow'
p2523
sg6
I6
sa(dp2524
g2
S'Selgninaem and Lucrovexitrin are extremely toxic.'
p2525
sg4
S'hollow'
p2526
sg6
I6
sa(dp2527
g2
S"The computer sensors would've picked up anything dangerous."
p2528
sg4
S'hollow'
p2529
sg6
I8
sa(dp2530
g2
S"The transporter malfunction. That's a connection too."
p2531
sg4
S'hollow'
p2532
sg6
I7
sa(dp2533
g2
S'What happened to your glass?'
p2534
sg4
S'hollow'
p2535
sg6
I5
sa(dp2536
g2
S'You ought to take a look at the flow capacitor. That could have forced a chain collapse of the antigrav field.'
p2537
sg4
S'hollow'
p2538
sg6
I21
sa(dp2539
g2
S"Couldn't coordinated static charges promote the shift?"
p2540
sg4
S'homesoil'
p2541
sg6
I7
sa(dp2542
g2
S"What's going on with the translator circuit?"
p2543
sg4
S'homesoil'
p2544
sg6
I7
sa(dp2545
g2
S"Commander, the warships' closing velocities are decreasing... staggered approach vectors bearing zero, one hundred twenty, and two hundred forty degrees."
p2546
sg4
S'human'
p2547
sg6
I20
sa(dp2548
g2
S'Go ahead.'
p2549
sg4
S'human'
p2550
sg6
I2
sa(dp2551
g2
S"It'll take them hours to get here, sir, even at maximum warp."
p2552
sg4
S'human'
p2553
sg6
I12
sa(dp2554
g2
S"Let's start over. A fresh banana split for me, one for my friend here."
p2555
sg4
S'human'
p2556
sg6
I14
sa(dp2557
g2
S"That's called a banana split and it's maybe the best thing there is in the universe.  Here -- give it a try."
p2558
sg4
S'human'
p2559
sg6
I22
sa(dp2560
g2
S'An escape pod.'
p2561
sg4
S'hunted'
p2562
sg6
I3
sa(dp2563
g2
S'Aye, sir.'
p2564
sg4
S'hunted'
p2565
sg6
I2
sa(dp2566
g2
S'Coordinates set, Captain.'
p2567
sg4
S'hunted'
p2568
sg6
I3
sa(dp2569
g2
S"Data, the drive section... where'd it go?"
p2570
sg4
S'hunted'
p2571
sg6
I7
sa(dp2572
g2
S"He's bounced off our shields."
p2573
sg4
S'hunted'
p2574
sg6
I5
sa(dp2575
g2
S"There's no sign of it on its previous heading. Someone must be at the helm."
p2576
sg4
S'hunted'
p2577
sg6
I15
sa(dp2578
g2
S'Three-one-nine mark two-five-zero.'
p2579
sg4
S'hunted'
p2580
sg6
I3
sa(dp2581
g2
S"We've been sweeping the area constantly, Commander. There's nothing within sensor range."
p2582
sg4
S'hunted'
p2583
sg6
I12
sa(dp2584
g2
S'What happened to the rest of his ship?'
p2585
sg4
S'hunted'
p2586
sg6
I8
sa(dp2587
g2
S"And I didn't have one long enough --"
p2588
sg4
S'icarus'
p2589
sg6
I8
sa(dp2590
g2
S'And they use those?'
p2591
sg4
S'icarus'
p2592
sg6
I4
sa(dp2593
g2
S'Aye, sir.'
p2594
sg4
S'icarus'
p2595
sg6
I2
sa(dp2596
g2
S"But he was so upset -- I must've said something wrong."
p2597
sg4
S'icarus'
p2598
sg6
I11
sa(dp2599
g2
S"But we don't practice Klingon tradition. And we're not Klingons.  Worf's feeling socially... culturally isolated."
p2600
sg4
S'icarus'
p2601
sg6
I15
sa(dp2602
g2
S'Chief, will you be able to attend a little party for Worf at seventeen hundred hours?'
p2603
sg4
S'icarus'
p2604
sg6
I16
sa(dp2605
g2
S'Commander Riker just caught me coming out of the turbolift.'
p2606
sg4
S'icarus'
p2607
sg6
I10
sa(dp2608
g2
S'Course and speed set.'
p2609
sg4
S'icarus'
p2610
sg6
I4
sa(dp2611
g2
S"Did you hear about Commander Riker's promotion?"
p2612
sg4
S'icarus'
p2613
sg6
I7
sa(dp2614
g2
S'Fine. Where do we start?'
p2615
sg4
S'icarus'
p2616
sg6
I5
sa(dp2617
g2
S"Geordi! Data! I figured out Worf's problem --"
p2618
sg4
S'icarus'
p2619
sg6
I8
sa(dp2620
g2
S"He didn't even know his father was coming. It was a complete surprise --"
p2621
sg4
S'icarus'
p2622
sg6
I14
sa(dp2623
g2
S'I knew I could count on you guys!'
p2624
sg4
S'icarus'
p2625
sg6
I8
sa(dp2626
g2
S"I know, but I've been working on Paracelsian computations as part of my studies and he wants them right away."
p2627
sg4
S'icarus'
p2628
sg6
I20
sa(dp2629
g2
S"I was just talking to Worf.  He's somewhat eccentric at times."
p2630
sg4
S'icarus'
p2631
sg6
I11
sa(dp2632
g2
S"I'm not thinking about it, really, but everybody needs somebody, don't you think -- ?"
p2633
sg4
S'icarus'
p2634
sg6
I15
sa(dp2635
g2
S"I've got to get my computations done."
p2636
sg4
S'icarus'
p2637
sg6
I7
sa(dp2638
g2
S"If we're going to get Worf through his problem, it is."
p2639
sg4
S'icarus'
p2640
sg6
I11
sa(dp2641
g2
S"It's a day of ritual and celebration with one's fellow Klingons... and he doesn't have any Klingon friends."
p2642
sg4
S'icarus'
p2643
sg6
I18
sa(dp2644
g2
S"It's the tenth anniversary of Worf's Age of Ascension."
p2645
sg4
S'icarus'
p2646
sg6
I9
sa(dp2647
g2
S"Neither am I... But I think it's something else with Worf... something's really bothering him."
p2648
sg4
S'icarus'
p2649
sg6
I15
sa(dp2650
g2
S'No, no. I accessed the complete Klingon cultural database. It took some time, but --'
p2651
sg4
S'icarus'
p2652
sg6
I15
sa(dp2653
g2
S'No. His reaction to that was just the opposite of mine: Completely unaffected.'
p2654
sg4
S'icarus'
p2655
sg6
I13
sa(dp2656
g2
S'Now the Klingon cultural database was very specific on the setting.'
p2657
sg4
S'icarus'
p2658
sg6
I11
sa(dp2659
g2
S'Oh, come on. What are friends for?  Right?'
p2660
sg4
S'icarus'
p2661
sg6
I8
sa(dp2662
g2
S"Really? You try talking to Worf. I'm telling you, he's not... normal... for Worf."
p2663
sg4
S'icarus'
p2664
sg6
I14
sa(dp2665
g2
S"Right. We'll watch for any signs of unusual behavior --"
p2666
sg4
S'icarus'
p2667
sg6
I10
sa(dp2668
g2
S'Terminating synchronous orbit.'
p2669
sg4
S'icarus'
p2670
sg6
I3
sa(dp2671
g2
S'The Age of Ascension is a Klingon ritual of great significance. A rite of initiation, marking a new level of Klingon spiritual attainment.'
p2672
sg4
S'icarus'
p2673
sg6
I23
sa(dp2674
g2
S"The cultural database said the initiate's family must be present --"
p2675
sg4
S'icarus'
p2676
sg6
I11
sa(dp2677
g2
S"There's an unusual test of inner strength involved --"
p2678
sg4
S'icarus'
p2679
sg6
I9
sa(dp2680
g2
S'Well, can you imagine if it was your father?'
p2681
sg4
S'icarus'
p2682
sg6
I9
sa(dp2683
g2
S'Well, whatever troubles him, we should try to help. He is our friend.'
p2684
sg4
S'icarus'
p2685
sg6
I13
sa(dp2686
g2
S'When Commander Riker says right away he means right away.'
p2687
sg4
S'icarus'
p2688
sg6
I10
sa(dp2689
g2
S"You guys aren't going to believe this..."
p2690
sg4
S'icarus'
p2691
sg6
I7
sa(dp2692
g2
S"You guys can cover for me, can't you?"
p2693
sg4
S'icarus'
p2694
sg6
I8
sa(dp2695
g2
S'Are you going to let them kill me, sir?'
p2696
sg4
S'justice'
p2697
sg6
I9
sa(dp2698
g2
S'At home we play a lot of it.  Here, toss the ball ahead of me!'
p2699
sg4
S'justice'
p2700
sg6
I15
sa(dp2701
g2
S"Can't run? Sure we can run, right sir?"
p2702
sg4
S'justice'
p2703
sg6
I8
sa(dp2704
g2
S'He was going to kill me?'
p2705
sg4
S'justice'
p2706
sg6
I6
sa(dp2707
g2
S'I guess you know a lot has happened here...'
p2708
sg4
S'justice'
p2709
sg6
I9
sa(dp2710
g2
S'I said I was fine. Just some splinters...'
p2711
sg4
S'justice'
p2712
sg6
I8
sa(dp2713
g2
S"I was chasing a ball...  ... and fell into that. I'm really sorry!"
p2714
sg4
S'justice'
p2715
sg6
I13
sa(dp2716
g2
S"I'm with Starfleet. We don't lie."
p2717
sg4
S'justice'
p2718
sg6
I6
sa(dp2719
g2
S"Listen, maybe I'll just go on ahead..."
p2720
sg4
S'justice'
p2721
sg6
I7
sa(dp2722
g2
S"Oh, sure. If you have a bat for the ball, I'll show you my favorite.  A bat...  ... a stick or branch, about this thick, this long..."
p2723
sg4
S'justice'
p2724
sg6
I27
sa(dp2725
g2
S'Uh... I guess... whatever you usually do...'
p2726
sg4
S'justice'
p2727
sg6
I7
sa(dp2728
g2
S'Uh... What?'
p2729
sg4
S'justice'
p2730
sg6
I2
sa(dp2731
g2
S"Well, actually, there are some games I... uh, don't quite know yet..."
p2732
sg4
S'justice'
p2733
sg6
I12
sa(dp2734
g2
S"Well... I really can't make any promises..."
p2735
sg4
S'justice'
p2736
sg6
I7
sa(dp2737
g2
S"What's wrong?"
p2738
sg4
S'justice'
p2739
sg6
I2
sa(dp2740
g2
S'Yes, sir!'
p2741
sg4
S'justice'
p2742
sg6
I2
sa(dp2743
g2
S"... but it's true she complimented Captain Picard on his legs?"
p2744
sg4
S'manhunt'
p2745
sg6
I11
sa(dp2746
g2
S'Are they alright, Captain?'
p2747
sg4
S'manhunt'
p2748
sg6
I4
sa(dp2749
g2
S'If you say so, Lieutenant.'
p2750
sg4
S'manhunt'
p2751
sg6
I5
sa(dp2752
g2
S'Married?'
p2753
sg4
S'manhunt'
p2754
sg6
I1
sa(dp2755
g2
S"Not until we reach Pacifica, ma'am."
p2756
sg4
S'manhunt'
p2757
sg6
I6
sa(dp2758
g2
S'On the screen, Captain.'
p2759
sg4
S'manhunt'
p2760
sg6
I4
sa(dp2761
g2
S"That uh, didn't come out quite right."
p2762
sg4
S'manhunt'
p2763
sg6
I7
sa(dp2764
g2
S'This is what they eat?'
p2765
sg4
S'manhunt'
p2766
sg6
I5
sa(dp2767
g2
S'Twelve point four hours, sir. That will get us there approximately two hours before the conference begins.'
p2768
sg4
S'manhunt'
p2769
sg6
I17
sa(dp2770
g2
S'Well, they are rather strange-looking, Commander.'
p2771
sg4
S'manhunt'
p2772
sg6
I6
sa(dp2773
g2
S"Well... maybe at first.  But now that I've seen a few more Klingons, I know that you're real handsome, for... for a Klingon."
p2774
sg4
S'manhunt'
p2775
sg6
I23
sa(dp2776
g2
S'What was that all about?'
p2777
sg4
S'manhunt'
p2778
sg6
I5
sa(dp2779
g2
S"What's in this container?"
p2780
sg4
S'manhunt'
p2781
sg6
I4
sa(dp2782
g2
S'Will we try to revive them?'
p2783
sg4
S'manhunt'
p2784
sg6
I6
sa(dp2785
g2
S'Aye sir, impulse speed.'
p2786
sg4
S'matterhonor'
p2787
sg6
I4
sa(dp2788
g2
S'Aye sir.'
p2789
sg4
S'matterhonor'
p2790
sg6
I2
sa(dp2791
g2
S'Aye sir. Shall we prepare for warp speed?'
p2792
sg4
S'matterhonor'
p2793
sg6
I8
sa(dp2794
g2
S'Aye, sir.'
p2795
sg4
S'matterhonor'
p2796
sg6
I2
sa(dp2797
g2
S'Going to half impulse.'
p2798
sg4
S'matterhonor'
p2799
sg6
I4
sa(dp2800
g2
S'How do you tell each other apart?'
p2801
sg4
S'matterhonor'
p2802
sg6
I7
sa(dp2803
g2
S"I'm sorry sir. I thought you were a friend... Mordoc...  ... You look just like him."
p2804
sg4
S'matterhonor'
p2805
sg6
I16
sa(dp2806
g2
S"It was a mistake... That's all. You didn't put the organism on the hull. You discovered it and you were attempting to analyze it. All you did was mess up a little on the ship's protocol."
p2807
sg4
S'matterhonor'
p2808
sg6
I36
sa(dp2809
g2
S"Mordoc, what are you doing here? You couldn't have graduated from the Academy already."
p2810
sg4
S'matterhonor'
p2811
sg6
I14
sa(dp2812
g2
S'Not really, it was an error. Captain Picard may not like them, but he does know they can happen from time to time.'
p2813
sg4
S'matterhonor'
p2814
sg6
I23
sa(dp2815
g2
S'Sir, bearings show that we should be in contact with the Klingon ship.'
p2816
sg4
S'matterhonor'
p2817
sg6
I13
sa(dp2818
g2
S"They are different. But that's what this exchange program is all about... You learn the way we do things and bring that information back to your command. It's up to you to decide which way is better for you.  It's easy. All you have to do is learn."
p2819
sg4
S'matterhonor'
p2820
sg6
I48
sa(dp2821
g2
S"We've never had any trouble with it. Have you seen it work?"
p2822
sg4
S'matterhonor'
p2823
sg6
I12
sa(dp2824
g2
S"Well, I've never heard Captain Picard refuse to listen to his officers."
p2825
sg4
S'matterhonor'
p2826
sg6
I12
sa(dp2827
g2
S'Why not? I thought you could use a friend.'
p2828
sg4
S'matterhonor'
p2829
sg6
I9
sa(dp2830
g2
S'Yes it is. Would you care to be more specific?'
p2831
sg4
S'matterhonor'
p2832
sg6
I10
sa(dp2833
g2
S"You seem to be making progress. You've already eliminated half the possibilities."
p2834
sg4
S'matterhonor'
p2835
sg6
I12
sa(dp2836
g2
S"You're going to advise Captain Picard?"
p2837
sg4
S'matterhonor'
p2838
sg6
I6
sa(dp2839
g2
S"You're missing the point."
p2840
sg4
S'measure'
p2841
sg6
I4
sa(dp2842
g2
S"You're supposed to rip the wrapping off a present."
p2843
sg4
S'measure'
p2844
sg6
I9
sa(dp2845
g2
S'Adding preprocessors to the neutrino counters boosted efficiency by eleven percent. Of course, Commander La Forge and Commander Data did most of the work...'
p2846
sg4
S'menage'
p2847
sg6
I24
sa(dp2848
g2
S'Aye, sir.'
p2849
sg4
S'menage'
p2850
sg6
I2
sa(dp2851
g2
S'Aye, sir.  Course set.'
p2852
sg4
S'menage'
p2853
sg6
I4
sa(dp2854
g2
S"But listen to the pattern... it's the Algolian ceremonial rhythm the musician was playing at the reception."
p2855
sg4
S'menage'
p2856
sg6
I17
sa(dp2857
g2
S"Captain, I think there's a pattern to the subspace interference I heard on one of the Ferengi messages."
p2858
sg4
S'menage'
p2859
sg6
I18
sa(dp2860
g2
S'Come in.'
p2861
sg4
S'menage'
p2862
sg6
I2
sa(dp2863
g2
S'Course plotted and laid in, sir.'
p2864
sg4
S'menage'
p2865
sg6
I6
sa(dp2866
g2
S"I hadn't thought about that, either."
p2867
sg4
S'menage'
p2868
sg6
I6
sa(dp2869
g2
S"I hope it's small, because I'm taking way too much as it is..."
p2870
sg4
S'menage'
p2871
sg6
I13
sa(dp2872
g2
S"I hope you're right, Geordi."
p2873
sg4
S'menage'
p2874
sg6
I5
sa(dp2875
g2
S"I never thought about that... I always assumed I'd be coming back to the Enterprise."
p2876
sg4
S'menage'
p2877
sg6
I15
sa(dp2878
g2
S'I suppose so...'
p2879
sg4
S'menage'
p2880
sg6
I3
sa(dp2881
g2
S'I understand, sir.  I do intend to reapply.'
p2882
sg4
S'menage'
p2883
sg6
I8
sa(dp2884
g2
S"It's Algolian ceremonial rhythms."
p2885
sg4
S'menage'
p2886
sg6
I4
sa(dp2887
g2
S'Just what we might expect in a stellar nursery.'
p2888
sg4
S'menage'
p2889
sg6
I9
sa(dp2890
g2
S'Mom -- thanks.'
p2891
sg4
S'menage'
p2892
sg6
I3
sa(dp2893
g2
S'No -- the message was scrambled...  It was the static.'
p2894
sg4
S'menage'
p2895
sg6
I10
sa(dp2896
g2
S"No... but I'm taking it anyway."
p2897
sg4
S'menage'
p2898
sg6
I6
sa(dp2899
g2
S"Perfect. A queen's gambit... finished off with the Aldabren Exchange."
p2900
sg4
S'menage'
p2901
sg6
I10
sa(dp2902
g2
S"Soon as we're sure this works..."
p2903
sg4
S'menage'
p2904
sg6
I6
sa(dp2905
g2
S'Thank you, Captain.'
p2906
sg4
S'menage'
p2907
sg6
I3
sa(dp2908
g2
S'Thank you, sir.'
p2909
sg4
S'menage'
p2910
sg6
I3
sa(dp2911
g2
S'Thank you, sir.'
p2912
sg4
S'menage'
p2913
sg6
I3
sa(dp2914
g2
S'Thanks, Data. Now if I can just do well on the oral exam...'
p2915
sg4
S'menage'
p2916
sg6
I13
sa(dp2917
g2
S'The interference itself could be a message. If I could just hear a replay of the subspace scans...'
p2918
sg4
S'menage'
p2919
sg6
I18
sa(dp2920
g2
S"This was Dad's..."
p2921
sg4
S'menage'
p2922
sg6
I3
sa(dp2923
g2
S'Wait -- repeat that one. Put it on a continuous replay.'
p2924
sg4
S'menage'
p2925
sg6
I11
sa(dp2926
g2
S"We've been scanning Ferengi transmissions, trying to find the Krayton. One of the signals was... I don't know... familiar somehow..."
p2927
sg4
S'menage'
p2928
sg6
I20
sa(dp2929
g2
S'You asked to see me, Captain?'
p2930
sg4
S'menage'
p2931
sg6
I6
sa(dp2932
g2
S'You too, Mom.'
p2933
sg4
S'menage'
p2934
sg6
I3
sa(dp2935
g2
S'... and a dessert course shall henceforth precede and follow every meal. Including breakfast.'
p2936
sg4
S'naked'
p2937
sg6
I14
sa(dp2938
g2
S'Are you saying I\'m "drunk?" I feel strange but also good.'
p2939
sg4
S'naked'
p2940
sg6
I11
sa(dp2941
g2
S'Are you saying that\'s why I feel so... so "hot," so strange?'
p2942
sg4
S'naked'
p2943
sg6
I12
sa(dp2944
g2
S"But he still won't let me on the bridge. And there's nothing there I don't understand."
p2945
sg4
S'naked'
p2946
sg6
I16
sa(dp2947
g2
S'But why not just see it in your head?  Come off the main lead, split at the force activator, then...then...  If I could just think straight about this...'
p2948
sg4
S'naked'
p2949
sg6
I28
sa(dp2950
g2
S"But, sir, you don't do it yourself. You give the orders, someone else does it. What's wrong with giving me the orders to do it?"
p2951
sg4
S'naked'
p2952
sg6
I25
sa(dp2953
g2
S'Did you see how I reversed fields on this, Commander? Made it into a repulser beam.'
p2954
sg4
S'naked'
p2955
sg6
I16
sa(dp2956
g2
S'Hi, Jim. Was that the captain sending you to Medical?'
p2957
sg4
S'naked'
p2958
sg6
I10
sa(dp2959
g2
S'Hi, Mister Data.'
p2960
sg4
S'naked'
p2961
sg6
I3
sa(dp2962
g2
S"Hooked my model tractor beam into ship's power. Now its a repulser beam too.  Want in?"
p2963
sg4
S'naked'
p2964
sg6
I16
sa(dp2965
g2
S'I think I can switch this to the main viewer, sir...'
p2966
sg4
S'naked'
p2967
sg6
I11
sa(dp2968
g2
S"I'm sorry, sir. Why don't you just tell me what you want done and I'll..."
p2969
sg4
S'naked'
p2970
sg6
I15
sa(dp2971
g2
S"I've been able to widen and strengthen the beam, just like I told you last night ---"
p2972
sg4
S'naked'
p2973
sg6
I17
sa(dp2974
g2
S'If this were a hundred times more powerful than it is...'
p2975
sg4
S'naked'
p2976
sg6
I11
sa(dp2977
g2
S"It's a model of the same kind of tractor beam our ship uses... with some ideas of my own added."
p2978
sg4
S'naked'
p2979
sg6
I20
sa(dp2980
g2
S"It's like a game of 'how fast can you do it?'"
p2981
sg4
S'naked'
p2982
sg6
I11
sa(dp2983
g2
S'Lock on, Tsiolkovsky, lock on... lock on, Tsiolkovsky, lock on...'
p2984
sg4
S'naked'
p2985
sg6
I10
sa(dp2986
g2
S"Meanwhile, the captain won't let me visit the bridge."
p2987
sg4
S'naked'
p2988
sg6
I9
sa(dp2989
g2
S"Oh yes, I remember too.  So, Data, if you don't mind..."
p2990
sg4
S'naked'
p2991
sg6
I11
sa(dp2992
g2
S"Pieced together from words he's used on the intercom.  I can pretend he's ordering me to take the Enterprise anywhere. And listen to this..."
p2993
sg4
S'naked'
p2994
sg6
I24
sa(dp2995
g2
S'Right, Mom, right. Your wish is my...'
p2996
sg4
S'naked'
p2997
sg6
I7
sa(dp2998
g2
S"So I use this to imagine I'm there."
p2999
sg4
S'naked'
p3000
sg6
I8
sa(dp3001
g2
S"Tractor beams are my specialty, Skipper! I'll contact you when that's done; Wesley out!"
p3002
sg4
S'naked'
p3003
sg6
I14
sa(dp3004
g2
S'What about me? I could call your chief on the bridge if anything happens.'
p3005
sg4
S'naked'
p3006
sg6
I14
sa(dp3007
g2
S"What d'you think?"
p3008
sg4
S'naked'
p3009
sg6
I3
sa(dp3010
g2
S'What would you do if you got your ship back?'
p3011
sg4
S'naked'
p3012
sg6
I10
sa(dp3013
g2
S"Why not try it with the real thing?!  Why not reverse fields on this, Ma'am? If we only need an extra minute..."
p3014
sg4
S'naked'
p3015
sg6
I22
sa(dp3016
g2
S'Yes sir?'
p3017
sg4
S'naked'
p3018
sg6
I2
sa(dp3019
g2
S'Yes, then reversing power leads, back through the force activator... repulser beam hard against the Tsiolkovsky...'
p3020
sg4
S'naked'
p3021
sg6
I16
sa(dp3022
g2
S"You could be stunting my emotional growth, you know.  Why's it so hot in here, anyway?"
p3023
sg4
S'naked'
p3024
sg6
I16
sa(dp3025
g2
S'You okay?'
p3026
sg4
S'naked'
p3027
sg6
I2
sa(dp3028
g2
S'Excuse me?'
p3029
sg4
S'neutralzone'
p3030
sg6
I2
sa(dp3031
g2
S'Well, sir, you were dead for over three-hundred years...'
p3032
sg4
S'neutralzone'
p3033
sg6
I9
sa(dp3034
g2
S'What about rock?'
p3035
sg4
S'neutralzone'
p3036
sg6
I3
sa(dp3037
g2
S'What was it like?... I mean, can you remember...'
p3038
sg4
S'neutralzone'
p3039
sg6
I9
sa(dp3040
g2
S'Why did you do it? Was there something left undone... something you have to finish?'
p3041
sg4
S'neutralzone'
p3042
sg6
I15
sa(dp3043
g2
S"And Data's the only person around who has one. That does kind of makes him Lal's dad."
p3044
sg4
S'offspring'
p3045
sg6
I17
sa(dp3046
g2
S'And cautious. He kept the lab locked.'
p3047
sg4
S'offspring'
p3048
sg6
I7
sa(dp3049
g2
S'Does anyone have any idea what this is all about?'
p3050
sg4
S'offspring'
p3051
sg6
I10
sa(dp3052
g2
S'Father?'
p3053
sg4
S'offspring'
p3054
sg6
I1
sa(dp3055
g2
S'It called you "Father", Data.'
p3056
sg4
S'offspring'
p3057
sg6
I5
sa(dp3058
g2
S'One advantage of a brain like yours, Data is that we can replicate it.'
p3059
sg4
S'offspring'
p3060
sg6
I14
sa(dp3061
g2
S'There are a lot of things you can learn just by being with kids your own age, Data.'
p3062
sg4
S'offspring'
p3063
sg6
I18
sa(dp3064
g2
S'Well, closer to her own age.'
p3065
sg4
S'offspring'
p3066
sg6
I6
sa(dp3067
g2
S"What does Lal do while you're on duty?"
p3068
sg4
S'offspring'
p3069
sg6
I8
sa(dp3070
g2
S"Yeah, what's going on?"
p3071
sg4
S'offspring'
p3072
sg6
I4
sa(dp3073
g2
S"Yes, Mom. I'm on my way.  Parents.  Nothing personal."
p3074
sg4
S'offspring'
p3075
sg6
I9
sa(dp3076
g2
S'You could send her to school.'
p3077
sg4
S'offspring'
p3078
sg6
I6
sa(dp3079
g2
S"You mean a transfer... from your your brain to Lal's..."
p3080
sg4
S'offspring'
p3081
sg6
I10
sa(dp3082
g2
S'A cargo master?'
p3083
sg4
S'okona'
p3084
sg6
I3
sa(dp3085
g2
S"Captain Okona, I don't know whether I'd rather take a flight with you or listen to you talk."
p3086
sg4
S'okona'
p3087
sg6
I18
sa(dp3088
g2
S'Captain, we have another Class four armed spacecraft approaching, from the opposite sector...'
p3089
sg4
S'okona'
p3090
sg6
I13
sa(dp3091
g2
S'Commander, do you know much about him?'
p3092
sg4
S'okona'
p3093
sg6
I7
sa(dp3094
g2
S"Don't you ever stay anywhere?"
p3095
sg4
S'okona'
p3096
sg6
I5
sa(dp3097
g2
S"He's a lot more than that. He's a capable engineer."
p3098
sg4
S'okona'
p3099
sg6
I10
sa(dp3100
g2
S'I already have.'
p3101
sg4
S'okona'
p3102
sg6
I3
sa(dp3103
g2
S"I know that's the way you want to be and it is your choice, but I don't understand. You like people. Why do you want to be alone all the time?"
p3104
sg4
S'okona'
p3105
sg6
I31
sa(dp3106
g2
S'It would be possible.'
p3107
sg4
S'okona'
p3108
sg6
I4
sa(dp3109
g2
S"It's Wesley, Wesley."
p3110
sg4
S'okona'
p3111
sg6
I3
sa(dp3112
g2
S"No, this is Lieutenant La Forge, I'm only an ensign."
p3113
sg4
S'okona'
p3114
sg6
I10
sa(dp3115
g2
S'Separated.'
p3116
sg4
S'okona'
p3117
sg6
I1
sa(dp3118
g2
S'Then why is he what he is?'
p3119
sg4
S'okona'
p3120
sg6
I7
sa(dp3121
g2
S'We have an "unidentified" in Sector four.'
p3122
sg4
S'okona'
p3123
sg6
I7
sa(dp3124
g2
S"We've seen him handle his ship, and he certainly knows how to handle people."
p3125
sg4
S'okona'
p3126
sg6
I14
sa(dp3127
g2
S'Wesley... Wesley Crusher..'
p3128
sg4
S'okona'
p3129
sg6
I3
sa(dp3130
g2
S'Where will you go?'
p3131
sg4
S'okona'
p3132
sg6
I4
sa(dp3133
g2
S"Yes, that's it."
p3134
sg4
S'okona'
p3135
sg6
I3
sa(dp3136
g2
S'Broken down the task and picked the best people in those disciplines.'
p3137
sg4
S'penpals'
p3138
sg6
I12
sa(dp3139
g2
S"But I haven't had to deal with them. Not all together. Not professionally."
p3140
sg4
S'penpals'
p3141
sg6
I13
sa(dp3142
g2
S"But what if I'm wrong?"
p3143
sg4
S'penpals'
p3144
sg6
I5
sa(dp3145
g2
S"But what if it's something really important -- not just a mineral survey, and what if someone ends up dead because of my mistake?"
p3146
sg4
S'penpals'
p3147
sg6
I24
sa(dp3148
g2
S"Didn't you tell me that U.V. absorption readings like these are indicative of traker deposits?"
p3149
sg4
S'penpals'
p3150
sg6
I15
sa(dp3151
g2
S'Does it get any easier?'
p3152
sg4
S'penpals'
p3153
sg6
I5
sa(dp3154
g2
S'Ensign Davies, I want that Ico-spectrogram run on the Selcundi Drema system.'
p3155
sg4
S'penpals'
p3156
sg6
I12
sa(dp3157
g2
S'Ensign Davies?'
p3158
sg4
S'penpals'
p3159
sg6
I2
sa(dp3160
g2
S"He'd listen to all the opinions, then make the decision. But he's Picard."
p3161
sg4
S'penpals'
p3162
sg6
I13
sa(dp3163
g2
S'Hi, Doctor Pulaski.'
p3164
sg4
S'penpals'
p3165
sg6
I3
sa(dp3166
g2
S'Hi, may I walk with you? I need a little advice.'
p3167
sg4
S'penpals'
p3168
sg6
I11
sa(dp3169
g2
S'I agree. Nice job.'
p3170
sg4
S'penpals'
p3171
sg6
I4
sa(dp3172
g2
S'I guess not.'
p3173
sg4
S'penpals'
p3174
sg6
I3
sa(dp3175
g2
S"I know, I just don't want to do the job halfway."
p3176
sg4
S'penpals'
p3177
sg6
I11
sa(dp3178
g2
S'I know, sir.'
p3179
sg4
S'penpals'
p3180
sg6
I3
sa(dp3181
g2
S"I suppose I could have made it an order, but that's the hard part. How do I give orders to somebody older and more experienced then me?"
p3182
sg4
S'penpals'
p3183
sg6
I27
sa(dp3184
g2
S"I think I'd still run the Ico-gram."
p3185
sg4
S'penpals'
p3186
sg6
I7
sa(dp3187
g2
S'I understand.'
p3188
sg4
S'penpals'
p3189
sg6
I2
sa(dp3190
g2
S"I'll try not to disappoint you"
p3191
sg4
S'penpals'
p3192
sg6
I6
sa(dp3193
g2
S"I'm not sure."
p3194
sg4
S'penpals'
p3195
sg6
I3
sa(dp3196
g2
S"I've already decided. I'm going to have Davies run that Ico-gram.  And thank you, sir."
p3197
sg4
S'penpals'
p3198
sg6
I15
sa(dp3199
g2
S"I've been put in charge of the planetary survey, and I'd like to have you on the team."
p3200
sg4
S'penpals'
p3201
sg6
I18
sa(dp3202
g2
S"It's about my team. I'm considering so many factors I'm confusing myself."
p3203
sg4
S'penpals'
p3204
sg6
I12
sa(dp3205
g2
S"It's working. We did it!"
p3206
sg4
S'penpals'
p3207
sg6
I5
sa(dp3208
g2
S"Maybe the opposite of ego. Every time I give an order, there's this part of me that's asking what makes my judgment so superior to this other person's."
p3209
sg4
S'penpals'
p3210
sg6
I28
sa(dp3211
g2
S"My team's in there. I've got to assign planets, set a schedule."
p3212
sg4
S'penpals'
p3213
sg6
I12
sa(dp3214
g2
S"No thank you sir. It's going to be a long time before I'm really qualified to sit here."
p3215
sg4
S'penpals'
p3216
sg6
I18
sa(dp3217
g2
S'No way.'
p3218
sg4
S'penpals'
p3219
sg6
I2
sa(dp3220
g2
S'No, sir, I need your advice.'
p3221
sg4
S'penpals'
p3222
sg6
I6
sa(dp3223
g2
S"Oh, I hadn't thought about that."
p3224
sg4
S'penpals'
p3225
sg6
I6
sa(dp3226
g2
S'Only because Commander Riker says I do.'
p3227
sg4
S'penpals'
p3228
sg6
I7
sa(dp3229
g2
S'Prixus and Hildebrant and Alans.'
p3230
sg4
S'penpals'
p3231
sg6
I5
sa(dp3232
g2
S'Prixus for mineralogy and metallurgy, Alans and Hildebrant, volcanology and geo-mechanics, and I want Davies for geo-chemistry, but --'
p3233
sg4
S'penpals'
p3234
sg6
I19
sa(dp3235
g2
S'Sir! Um... thank you, sir.'
p3236
sg4
S'penpals'
p3237
sg6
I5
sa(dp3238
g2
S"So you not only have to understand the job, you have to be a ship's counselor."
p3239
sg4
S'penpals'
p3240
sg6
I16
sa(dp3241
g2
S'Thank you, sir.'
p3242
sg4
S'penpals'
p3243
sg6
I3
sa(dp3244
g2
S"Then don't you think we ought to run an Ico-spectrogram?"
p3245
sg4
S'penpals'
p3246
sg6
I10
sa(dp3247
g2
S"Uh... thanks, but I think I'll be okay."
p3248
sg4
S'penpals'
p3249
sg6
I8
sa(dp3250
g2
S'Very quickly, sir.'
p3251
sg4
S'penpals'
p3252
sg6
I3
sa(dp3253
g2
S'Walking or advice?'
p3254
sg4
S'penpals'
p3255
sg6
I3
sa(dp3256
g2
S"Well, maybe you're right."
p3257
sg4
S'penpals'
p3258
sg6
I4
sa(dp3259
g2
S'Well, thanks.'
p3260
sg4
S'penpals'
p3261
sg6
I2
sa(dp3262
g2
S'Well, yeah, I guess. Or I could have just been picking nits.'
p3263
sg4
S'penpals'
p3264
sg6
I12
sa(dp3265
g2
S'Wesley Crusher.'
p3266
sg4
S'penpals'
p3267
sg6
I2
sa(dp3268
g2
S'Yeah, it makes me feel awkward. And what about compatibility --'
p3269
sg4
S'penpals'
p3270
sg6
I11
sa(dp3271
g2
S'Yes, sir. A team, sir?'
p3272
sg4
S'penpals'
p3273
sg6
I5
sa(dp3274
g2
S"Yesterday Ensign Davies turned in his survey results. I thought he should run an Ico-spectrogram. He didn't agree."
p3275
sg4
S'penpals'
p3276
sg6
I18
sa(dp3277
g2
S'-- for just under two seconds.'
p3278
sg4
S'performance'
p3279
sg6
I6
sa(dp3280
g2
S'... and the Enterprise will waltz over and pulverize us.'
p3281
sg4
S'performance'
p3282
sg6
I10
sa(dp3283
g2
S'Geordi, I have to return to the Enterprise.'
p3284
sg4
S'performance'
p3285
sg6
I8
sa(dp3286
g2
S"I can't believe I forgot about this. Good lesson not to let excitement cloud your thinking."
p3287
sg4
S'performance'
p3288
sg6
I16
sa(dp3289
g2
S'I have to dispose of it safely... This is really volatile... I better beam it off the Enterprise and leave it particalized.'
p3290
sg4
S'performance'
p3291
sg6
I22
sa(dp3292
g2
S"I'll transfer the coordinates to the Transporter Room."
p3293
sg4
S'performance'
p3294
sg6
I8
sa(dp3295
g2
S'It dealt with high-energy plasma reactions --  -- with anti-matter.'
p3296
sg4
S'performance'
p3297
sg6
I10
sa(dp3298
g2
S'It has to be monitored. And it is my final grade in plasma physics.'
p3299
sg4
S'performance'
p3300
sg6
I14
sa(dp3301
g2
S'My experiment from the Enterprise.'
p3302
sg4
S'performance'
p3303
sg6
I5
sa(dp3304
g2
S'No, Sir!'
p3305
sg4
S'performance'
p3306
sg6
I2
sa(dp3307
g2
S'No, sir. You told me to improvise.'
p3308
sg4
S'performance'
p3309
sg6
I7
sa(dp3310
g2
S"Oh, no. It's ruined."
p3311
sg4
S'performance'
p3312
sg6
I4
sa(dp3313
g2
S'Sir, I left an experiment running on the Enterprise. May I go back and shut it down?'
p3314
sg4
S'performance'
p3315
sg6
I17
sa(dp3316
g2
S'The lining is still smooth, and we ought to be able to do something with the dilithium chips we scavenged.'
p3317
sg4
S'performance'
p3318
sg6
I20
sa(dp3319
g2
S"They're moving off. Why not go after them?"
p3320
sg4
S'performance'
p3321
sg6
I8
sa(dp3322
g2
S'This is important.'
p3323
sg4
S'performance'
p3324
sg6
I3
sa(dp3325
g2
S'This is really delicate ... I spent six weeks setting it up.'
p3326
sg4
S'performance'
p3327
sg6
I12
sa(dp3328
g2
S"We don't have a prayer."
p3329
sg4
S'performance'
p3330
sg6
I5
sa(dp3331
g2
S'We plan to channel the reaction through the chips.'
p3332
sg4
S'performance'
p3333
sg6
I9
sa(dp3334
g2
S"You weren't?"
p3335
sg4
S'performance'
p3336
sg6
I2
sa(dp3337
g2
S'Course laid in, sir.'
p3338
sg4
S'perspective'
p3339
sg6
I4
sa(dp3340
g2
S'Data noticed something too strange to be a coincidence...'
p3341
sg4
S'perspective'
p3342
sg6
I9
sa(dp3343
g2
S'It must have been left on after the explosion of the lab.'
p3344
sg4
S'perspective'
p3345
sg6
I12
sa(dp3346
g2
S'Make any sense to you?'
p3347
sg4
S'perspective'
p3348
sg6
I5
sa(dp3349
g2
S"There's a point-zero-zero-one-four second variance we haven't been able to explain yet."
p3350
sg4
S'perspective'
p3351
sg6
I12
sa(dp3352
g2
S'We also know who killed Doctor Apgar.'
p3353
sg4
S'perspective'
p3354
sg6
I7
sa(dp3355
g2
S"We'll figure it out, Commander."
p3356
sg4
S'perspective'
p3357
sg6
I5
sa(dp3358
g2
S"Well, it wasn't the commander's phaser. It couldn't be. There's gotta be another answer... we're just not seeing it yet..."
p3359
sg4
S'perspective'
p3360
sg6
I20
sa(dp3361
g2
S'Where would it be coming from...'
p3362
sg4
S'perspective'
p3363
sg6
I6
sa(dp3364
g2
S'Can I talk to you a minute... I have a real problem with my mother.'
p3365
sg4
S'price'
p3366
sg6
I15
sa(dp3367
g2
S'Captain...'
p3368
sg4
S'price'
p3369
sg6
I1
sa(dp3370
g2
S'Counselor Troi... ?'
p3371
sg4
S'price'
p3372
sg6
I3
sa(dp3373
g2
S"It's the relativistic time dilation, sir. Time is moving more slowly inside their part of the wormhole. I can process the audio to compensate..."
p3374
sg4
S'price'
p3375
sg6
I24
sa(dp3376
g2
S'The wormhole will reappear in thirty seconds.'
p3377
sg4
S'price'
p3378
sg6
I7
sa(dp3379
g2
S"They've passed beyond our communication capabilities, sir..."
p3380
sg4
S'price'
p3381
sg6
I7
sa(dp3382
g2
S'Answering all stop.'
p3383
sg4
S'qwho'
p3384
sg6
I3
sa(dp3385
g2
S"But, how could he get to the shuttle bay, how could he leave the Enterprise without us knowing? It's not possible."
p3386
sg4
S'qwho'
p3387
sg6
I21
sa(dp3388
g2
S'Course set for Starbase eight three.'
p3389
sg4
S'qwho'
p3390
sg6
I6
sa(dp3391
g2
S"It's holding us here!"
p3392
sg4
S'qwho'
p3393
sg6
I4
sa(dp3394
g2
S'The Borg ship is closing.'
p3395
sg4
S'qwho'
p3396
sg6
I5
sa(dp3397
g2
S'Zero-seven-six mark two- two-five -- back where we started.'
p3398
sg4
S'qwho'
p3399
sg6
I9
sa(dp3400
g2
S'Almost done, Commander.'
p3401
sg4
S'rememberme'
p3402
sg6
I3
sa(dp3403
g2
S"And then I sent a message by subspace to Tau Alpha C asking for help... but I didn't think it would reach there for days..."
p3404
sg4
S'rememberme'
p3405
sg6
I25
sa(dp3406
g2
S"But you said there's still a way."
p3407
sg4
S'rememberme'
p3408
sg6
I7
sa(dp3409
g2
S'He was Kosinski\'s assistant... an alien from Tau Alpha C... He said he was a "Traveler"... somehow he combined warp technology with the energy of his own thoughts...'
p3410
sg4
S'rememberme'
p3411
sg6
I28
sa(dp3412
g2
S'Hi!'
p3413
sg4
S'rememberme'
p3414
sg6
I1
sa(dp3415
g2
S"I can't. I can't do it."
p3416
sg4
S'rememberme'
p3417
sg6
I6
sa(dp3418
g2
S"I don't even know if he's still alive. He was sick."
p3419
sg4
S'rememberme'
p3420
sg6
I11
sa(dp3421
g2
S"I don't have any more equations."
p3422
sg4
S'rememberme'
p3423
sg6
I6
sa(dp3424
g2
S"I don't know how."
p3425
sg4
S'rememberme'
p3426
sg6
I4
sa(dp3427
g2
S"I don't know, Mom..."
p3428
sg4
S'rememberme'
p3429
sg6
I4
sa(dp3430
g2
S"I don't see how. But he's the only one who could tell us... I've sent a message by subspace, but Tau Alpha C is so far away, it'll take days to get there."
p3431
sg4
S'rememberme'
p3432
sg6
I33
sa(dp3433
g2
S"I'm in Engineering, sir. I think there's something here you'd better see. It might be connected to Doctor Quaice's disappearance."
p3434
sg4
S'rememberme'
p3435
sg6
I20
sa(dp3436
g2
S"I've already talked to Kosinski on subspace... he can't explain it either and it's all based on his equations. There is someone who might be able to help us, but I can't reach him."
p3437
sg4
S'rememberme'
p3438
sg6
I34
sa(dp3439
g2
S"I've been experimenting with Kosinski's warp field equations... Trying to find a way to improve engine efficiency."
p3440
sg4
S'rememberme'
p3441
sg6
I17
sa(dp3442
g2
S"I've lost it."
p3443
sg4
S'rememberme'
p3444
sg6
I3
sa(dp3445
g2
S"If he were caught in it... yessir, it would seem to us like he'd disappeared."
p3446
sg4
S'rememberme'
p3447
sg6
I15
sa(dp3448
g2
S"It doesn't make sense."
p3449
sg4
S'rememberme'
p3450
sg6
I4
sa(dp3451
g2
S'It was my fault. I should never have tried...'
p3452
sg4
S'rememberme'
p3453
sg6
I9
sa(dp3454
g2
S"It's over. We'll never get her back."
p3455
sg4
S'rememberme'
p3456
sg6
I7
sa(dp3457
g2
S"Just a couple more minutes! I'm ready to try the new warp field!  Mom?"
p3458
sg4
S'rememberme'
p3459
sg6
I14
sa(dp3460
g2
S'Just tell me what I have to do.'
p3461
sg4
S'rememberme'
p3462
sg6
I8
sa(dp3463
g2
S'Mom? You all right?'
p3464
sg4
S'rememberme'
p3465
sg6
I4
sa(dp3466
g2
S"No, it's too late. Look."
p3467
sg4
S'rememberme'
p3468
sg6
I5
sa(dp3469
g2
S'Nossir.'
p3470
sg4
S'rememberme'
p3471
sg6
I1
sa(dp3472
g2
S'Other people are missing?'
p3473
sg4
S'rememberme'
p3474
sg6
I4
sa(dp3475
g2
S'Right! Okay!'
p3476
sg4
S'rememberme'
p3477
sg6
I2
sa(dp3478
g2
S"That shouldn't have happened."
p3479
sg4
S'rememberme'
p3480
sg6
I4
sa(dp3481
g2
S"Then how am I supposed to do it?  You said you'd help."
p3482
sg4
S'rememberme'
p3483
sg6
I12
sa(dp3484
g2
S"There it is. I don't know what else to do..."
p3485
sg4
S'rememberme'
p3486
sg6
I10
sa(dp3487
g2
S'This is the static warp field we created inside the warp drive. The experiment was designed to see if we could keep a bubble like this intact.'
p3488
sg4
S'rememberme'
p3489
sg6
I27
sa(dp3490
g2
S'Uh, yeah...'
p3491
sg4
S'rememberme'
p3492
sg6
I2
sa(dp3493
g2
S"We've tried to stabilize it. The link won't hold."
p3494
sg4
S'rememberme'
p3495
sg6
I9
sa(dp3496
g2
S"What? What's wrong."
p3497
sg4
S'rememberme'
p3498
sg6
I3
sa(dp3499
g2
S'Why would there be any visible phenomena outside the drive?'
p3500
sg4
S'rememberme'
p3501
sg6
I10
sa(dp3502
g2
S'Aye, sir. All stop.'
p3503
sg4
S'reunion'
p3504
sg6
I4
sa(dp3505
g2
S'Klingon vessels Vorn and Buruk holding stations at thirteen kilometers.'
p3506
sg4
S'reunion'
p3507
sg6
I10
sa(dp3508
g2
S'Information retrieved, Captain --'
p3509
sg4
S'royale'
p3510
sg6
I4
sa(dp3511
g2
S"These frequencies aren't working."
p3512
sg4
S'royale'
p3513
sg6
I4
sa(dp3514
g2
S"We're attempting to employ alternate encoding schemes."
p3515
sg4
S'royale'
p3516
sg6
I7
sa(dp3517
g2
S'Yes sir.'
p3518
sg4
S'royale'
p3519
sg6
I2
sa(dp3520
g2
S'A parthenogenetic implant?'
p3521
sg4
S'samaritan'
p3522
sg6
I3
sa(dp3523
g2
S'Aye, sir.'
p3524
sg4
S'samaritan'
p3525
sg6
I2
sa(dp3526
g2
S'Before the Klingons joined the Federation?'
p3527
sg4
S'samaritan'
p3528
sg6
I6
sa(dp3529
g2
S'But Starfleet Academy--'
p3530
sg4
S'samaritan'
p3531
sg6
I3
sa(dp3532
g2
S'But those Academy cadets are pretty competitive, you know.'
p3533
sg4
S'samaritan'
p3534
sg6
I9
sa(dp3535
g2
S'Captain... excuse me.'
p3536
sg4
S'samaritan'
p3537
sg6
I3
sa(dp3538
g2
S"Cardiac replacement? I didn't know..."
p3539
sg4
S'samaritan'
p3540
sg6
I5
sa(dp3541
g2
S"Didn't you ever wish you had kids of your own?"
p3542
sg4
S'samaritan'
p3543
sg6
I10
sa(dp3544
g2
S'Doctor Pulaski asked me to make sure you actually went inside.'
p3545
sg4
S'samaritan'
p3546
sg6
I11
sa(dp3547
g2
S"Don't worry about me. Where women are concerned, I'm in complete control."
p3548
sg4
S'samaritan'
p3549
sg6
I12
sa(dp3550
g2
S"Don't you ever get lonely?"
p3551
sg4
S'samaritan'
p3552
sg6
I5
sa(dp3553
g2
S"Have you always known what you've wanted... been so disciplined?"
p3554
sg4
S'samaritan'
p3555
sg6
I10
sa(dp3556
g2
S"He's coming with me to starbase. Just the two of us. Nearly a six-hour transit. What am I going to talk to him about for six hours?"
p3557
sg4
S'samaritan'
p3558
sg6
I27
sa(dp3559
g2
S"I don't understand."
p3560
sg4
S'samaritan'
p3561
sg6
I3
sa(dp3562
g2
S'I enjoyed our trip together.'
p3563
sg4
S'samaritan'
p3564
sg6
I5
sa(dp3565
g2
S"I just don't have much time."
p3566
sg4
S'samaritan'
p3567
sg6
I6
sa(dp3568
g2
S"I've still got some time, sir."
p3569
sg4
S'samaritan'
p3570
sg6
I6
sa(dp3571
g2
S"It's not the exams I'm worried about. It's Captain Picard."
p3572
sg4
S'samaritan'
p3573
sg6
I10
sa(dp3574
g2
S"It's okay. You can just do without most people. I can understand that --"
p3575
sg4
S'samaritan'
p3576
sg6
I14
sa(dp3577
g2
S'Not exactly warp speed, sir.'
p3578
sg4
S'samaritan'
p3579
sg6
I5
sa(dp3580
g2
S"Of course, sir. But why didn't you have Doctor Pulaski perform the operation? You could've trusted her to keep it quiet."
p3581
sg4
S'samaritan'
p3582
sg6
I21
sa(dp3583
g2
S'Pardon, sir?'
p3584
sg4
S'samaritan'
p3585
sg6
I2
sa(dp3586
g2
S'Really? Really? Then what?'
p3587
sg4
S'samaritan'
p3588
sg6
I4
sa(dp3589
g2
S'Sir?'
p3590
sg4
S'samaritan'
p3591
sg6
I1
sa(dp3592
g2
S'Sir?'
p3593
sg4
S'samaritan'
p3594
sg6
I1
sa(dp3595
g2
S'Sir?'
p3596
sg4
S'samaritan'
p3597
sg6
I1
sa(dp3598
g2
S'Some of it.'
p3599
sg4
S'samaritan'
p3600
sg6
I3
sa(dp3601
g2
S"That's too bad.  You might've made a pretty good father."
p3602
sg4
S'samaritan'
p3603
sg6
I10
sa(dp3604
g2
S'The testing parameters?'
p3605
sg4
S'samaritan'
p3606
sg6
I3
sa(dp3607
g2
S'Those are pretty good odds.'
p3608
sg4
S'samaritan'
p3609
sg6
I5
sa(dp3610
g2
S"Well, I'll bet you've broken your fair share of hearts along the way..."
p3611
sg4
S'samaritan'
p3612
sg6
I13
sa(dp3613
g2
S"Well, everyone knows. You don't like kids."
p3614
sg4
S'samaritan'
p3615
sg6
I7
sa(dp3616
g2
S"Well, it's pretty obvious how you feel."
p3617
sg4
S'samaritan'
p3618
sg6
I7
sa(dp3619
g2
S'Were you ever married?'
p3620
sg4
S'samaritan'
p3621
sg6
I4
sa(dp3622
g2
S'What happened?'
p3623
sg4
S'samaritan'
p3624
sg6
I2
sa(dp3625
g2
S'Why are you going with me to Starbase five one five, Captain?'
p3626
sg4
S'samaritan'
p3627
sg6
I12
sa(dp3628
g2
S'Why would anyone use a flawed replacement?'
p3629
sg4
S'samaritan'
p3630
sg6
I7
sa(dp3631
g2
S"William James sure won't be on my Starfleet exams."
p3632
sg4
S'samaritan'
p3633
sg6
I9
sa(dp3634
g2
S'Yeah. I know.'
p3635
sg4
S'samaritan'
p3636
sg6
I3
sa(dp3637
g2
S'Yes sir.'
p3638
sg4
S'samaritan'
p3639
sg6
I2
sa(dp3640
g2
S'Yes, sir. I was just on my way to Shuttle Bay Two.'
p3641
sg4
S'samaritan'
p3642
sg6
I12
sa(dp3643
g2
S"You don't have to say that."
p3644
sg4
S'samaritan'
p3645
sg6
I6
sa(dp3646
g2
S"You don't really care much for people, do you?"
p3647
sg4
S'samaritan'
p3648
sg6
I9
sa(dp3649
g2
S'You fought them? And won?'
p3650
sg4
S'samaritan'
p3651
sg6
I5
sa(dp3652
g2
S'You will?  I mean, yessir!'
p3653
sg4
S'samaritan'
p3654
sg6
I5
sa(dp3655
g2
S'You would.'
p3656
sg4
S'samaritan'
p3657
sg6
I2
sa(dp3658
g2
S'Are the Legarans really going to sit in this stuff?'
p3659
sg4
S'sarek'
p3660
sg6
I10
sa(dp3661
g2
S"At least I don't have to find my women in the Holodeck!"
p3662
sg4
S'sarek'
p3663
sg6
I12
sa(dp3664
g2
S"At least I'm not spending the night with a good book like some people..."
p3665
sg4
S'sarek'
p3666
sg6
I14
sa(dp3667
g2
S'Away from you.'
p3668
sg4
S'sarek'
p3669
sg6
I3
sa(dp3670
g2
S'Can you believe this smell?'
p3671
sg4
S'sarek'
p3672
sg6
I5
sa(dp3673
g2
S"Don't you think you're overreacting a little?"
p3674
sg4
S'sarek'
p3675
sg6
I7
sa(dp3676
g2
S'Ensign Dumont.'
p3677
sg4
S'sarek'
p3678
sg6
I2
sa(dp3679
g2
S"Excuses? Come on, Mom... it wasn't an official function."
p3680
sg4
S'sarek'
p3681
sg6
I9
sa(dp3682
g2
S'Hi Mom. I got a message you wanted to see me?'
p3683
sg4
S'sarek'
p3684
sg6
I11
sa(dp3685
g2
S'I have... sort of a date.'
p3686
sg4
S'sarek'
p3687
sg6
I6
sa(dp3688
g2
S'I said I might be going. Suzanne wanted to go to the arboretum.'
p3689
sg4
S'sarek'
p3690
sg6
I13
sa(dp3691
g2
S'Is that it? Can I get out of here?'
p3692
sg4
S'sarek'
p3693
sg6
I9
sa(dp3694
g2
S'Just what it sounds like.'
p3695
sg4
S'sarek'
p3696
sg6
I5
sa(dp3697
g2
S'May I be excused, Commander?'
p3698
sg4
S'sarek'
p3699
sg6
I5
sa(dp3700
g2
S'Mom!'
p3701
sg4
S'sarek'
p3702
sg6
I1
sa(dp3703
g2
S"Okay, I won't."
p3704
sg4
S'sarek'
p3705
sg6
I3
sa(dp3706
g2
S'Since when did you become an expert on women?'
p3707
sg4
S'sarek'
p3708
sg6
I9
sa(dp3709
g2
S'Someone like me?'
p3710
sg4
S'sarek'
p3711
sg6
I3
sa(dp3712
g2
S"The environmental controls are ready. What's next?"
p3713
sg4
S'sarek'
p3714
sg6
I7
sa(dp3715
g2
S'The temperature in the tank is now one hundred fifty degrees Celsius.'
p3716
sg4
S'sarek'
p3717
sg6
I12
sa(dp3718
g2
S"What, that she'd go out with me?"
p3719
sg4
S'sarek'
p3720
sg6
I7
sa(dp3721
g2
S'You heard me!'
p3722
sg4
S'sarek'
p3723
sg6
I3
sa(dp3724
g2
S'Aye sir.'
p3725
sg4
S'schizoid'
p3726
sg6
I2
sa(dp3727
g2
S'Captain Picard.'
p3728
sg4
S'schizoid'
p3729
sg6
I2
sa(dp3730
g2
S'Confirmed. Point of origin... sector three-five mark seven.'
p3731
sg4
S'schizoid'
p3732
sg6
I8
sa(dp3733
g2
S"I heard about the ceremony you're having for Doctor Graves, and... well sir --"
p3734
sg4
S'schizoid'
p3735
sg6
I14
sa(dp3736
g2
S"It's no good, sir. I don't believe they're receiving us."
p3737
sg4
S'schizoid'
p3738
sg6
I10
sa(dp3739
g2
S'Since I never got to meet him...'
p3740
sg4
S'schizoid'
p3741
sg6
I7
sa(dp3742
g2
S'That was a great speech, Data. To know know him is to love love love love love him?!'
p3743
sg4
S'schizoid'
p3744
sg6
I18
sa(dp3745
g2
S'The child? You still working on your sense of humor, Data?'
p3746
sg4
S'schizoid'
p3747
sg6
I11
sa(dp3748
g2
S'Thirty-six minutes to orbit, sir.'
p3749
sg4
S'schizoid'
p3750
sg6
I5
sa(dp3751
g2
S"What's wrong with you?!"
p3752
sg4
S'schizoid'
p3753
sg6
I4
sa(dp3754
g2
S'Yes sir. His theories on spatial relationships are amazing! And his work in thermodynamics is --'
p3755
sg4
S'schizoid'
p3756
sg6
I16
sa(dp3757
g2
S"Yes sir. Understood.  But why me, sir? I mean, not that I'm complaining --"
p3758
sg4
S'schizoid'
p3759
sg6
I14
sa(dp3760
g2
S'You wanted to see me, sir.'
p3761
sg4
S'schizoid'
p3762
sg6
I6
sa(dp3763
g2
S'But what do I say? How should I act? What do I do?'
p3764
sg4
S'shades'
p3765
sg6
I13
sa(dp3766
g2
S'Commander Riker...'
p3767
sg4
S'shades'
p3768
sg6
I2
sa(dp3769
g2
S'Hi, Mister Data.'
p3770
sg4
S'shades'
p3771
sg6
I3
sa(dp3772
g2
S"I don't think this is my style."
p3773
sg4
S'shades'
p3774
sg6
I7
sa(dp3775
g2
S'I think I can switch this to the Main Viewer, sir...'
p3776
sg4
S'shades'
p3777
sg6
I11
sa(dp3778
g2
S'It\'s like a game of "how fast can you do it?"'
p3779
sg4
S'shades'
p3780
sg6
I11
sa(dp3781
g2
S"Oh yes, I remember too.  So, Data, if you don't mind..."
p3782
sg4
S'shades'
p3783
sg6
I11
sa(dp3784
g2
S'Yes, then reversing power leads, back through the force activator... repulser beam hard against the Tsiolkovsky...'
p3785
sg4
S'shades'
p3786
sg6
I16
sa(dp3787
g2
S'Aye, sir.'
p3788
sg4
S'silencelease'
p3789
sg6
I2
sa(dp3790
g2
S'Aye, sir.'
p3791
sg4
S'silencelease'
p3792
sg6
I2
sa(dp3793
g2
S'Aye, sir. Holding this position.'
p3794
sg4
S'silencelease'
p3795
sg6
I5
sa(dp3796
g2
S'Captain, based on where the probes disappeared... I have been able to plot the outer boundaries. I could move in closer.'
p3797
sg4
S'silencelease'
p3798
sg6
I21
sa(dp3799
g2
S"Captain, if this were any ordinary kind of hole in space...  ... wouldn't we be able to see what's behind it?"
p3800
sg4
S'silencelease'
p3801
sg6
I21
sa(dp3802
g2
S"Captain, it's almost gone."
p3803
sg4
S'silencelease'
p3804
sg6
I4
sa(dp3805
g2
S'Captain, we have no communications outside of the void.'
p3806
sg4
S'silencelease'
p3807
sg6
I9
sa(dp3808
g2
S'Changing course to intercept in... in twelve minutes, sir.'
p3809
sg4
S'silencelease'
p3810
sg6
I9
sa(dp3811
g2
S'Confirm, sir. Exactly what my readings say.'
p3812
sg4
S'silencelease'
p3813
sg6
I7
sa(dp3814
g2
S'Course and speed set.'
p3815
sg4
S'silencelease'
p3816
sg6
I4
sa(dp3817
g2
S'Full stop, sir.'
p3818
sg4
S'silencelease'
p3819
sg6
I3
sa(dp3820
g2
S"It's an opening, sir."
p3821
sg4
S'silencelease'
p3822
sg6
I4
sa(dp3823
g2
S'Reversing direction, sir.  Course laid in.'
p3824
sg4
S'silencelease'
p3825
sg6
I6
sa(dp3826
g2
S'Should I set a course?'
p3827
sg4
S'silencelease'
p3828
sg6
I5
sa(dp3829
g2
S'The Yamato is nowhere near this quadrant.'
p3830
sg4
S'silencelease'
p3831
sg6
I7
sa(dp3832
g2
S"The Yamato's beginning to fade out, Captain."
p3833
sg4
S'silencelease'
p3834
sg6
I7
sa(dp3835
g2
S'The opening seems closer, Captain.'
p3836
sg4
S'silencelease'
p3837
sg6
I5
sa(dp3838
g2
S'There -- it looks like a "hole" in space.'
p3839
sg4
S'silencelease'
p3840
sg6
I9
sa(dp3841
g2
S'There!'
p3842
sg4
S'silencelease'
p3843
sg6
I1
sa(dp3844
g2
S'Warp three, sir...'
p3845
sg4
S'silencelease'
p3846
sg6
I3
sa(dp3847
g2
S"We couldn't have, sir. I've shown us steadily moving away from that beacon."
p3848
sg4
S'silencelease'
p3849
sg6
I13
sa(dp3850
g2
S'Yes, sir -- warp six.'
p3851
sg4
S'silencelease'
p3852
sg6
I5
sa(dp3853
g2
S'Aye sir.'
p3854
sg4
S'sins'
p3855
sg6
I2
sa(dp3856
g2
S'Engaged. Increasing to one-third impulse power, sir.'
p3857
sg4
S'sins'
p3858
sg6
I7
sa(dp3859
g2
S"He... just doesn't seem to like me, sir. I can't do anything right for him. Every time I respond to one of his orders... he jumps down my throat. I'm not sure what I'm doing wrong."
p3860
sg4
S'sins'
p3861
sg6
I36
sa(dp3862
g2
S"It's not just us. He's leaning pretty hard on everybody except..."
p3863
sg4
S'sins'
p3864
sg6
I11
sa(dp3865
g2
S'No, sir.'
p3866
sg4
S'sins'
p3867
sg6
I2
sa(dp3868
g2
S'No, sir.'
p3869
sg4
S'sins'
p3870
sg6
I2
sa(dp3871
g2
S'Nosir, Commander, sir.'
p3872
sg4
S'sins'
p3873
sg6
I3
sa(dp3874
g2
S'But...'
p3875
sg4
S'skin'
p3876
sg6
I1
sa(dp3877
g2
S"I don't know. The captain gave me a seating plan."
p3878
sg4
S'skin'
p3879
sg6
I10
sa(dp3880
g2
S"Sir, I'd like to..."
p3881
sg4
S'skin'
p3882
sg6
I4
sa(dp3883
g2
S"Tell my Mom... I'm not worried."
p3884
sg4
S'skin'
p3885
sg6
I6
sa(dp3886
g2
S"This is where you're supposed to sit."
p3887
sg4
S'skin'
p3888
sg6
I7
sa(dp3889
g2
S'Aye, sir.'
p3890
sg4
S'survivors'
p3891
sg6
I2
sa(dp3892
g2
S'Aye, sir.'
p3893
sg4
S'survivors'
p3894
sg6
I2
sa(dp3895
g2
S'Aye, sir. But, Captain, what do we watch for?'
p3896
sg4
S'survivors'
p3897
sg6
I9
sa(dp3898
g2
S"Hold it -- hold it! I'm getting something at thirty-seven degrees north, sixty-two degrees east -- a structure!"
p3899
sg4
S'survivors'
p3900
sg6
I18
sa(dp3901
g2
S"The vessel has reached warp two and continues on a steady acceleration curve. We aren't getting any closer, Commander."
p3902
sg4
S'survivors'
p3903
sg6
I19
sa(dp3904
g2
S"They're maneuvering to come between the Enterprise and Rana Four."
p3905
sg4
S'survivors'
p3906
sg6
I10
sa(dp3907
g2
S'Warp eight point five... warp eight point seven five... warp nine... the warship continues to match our acceleration curve perfectly.'
p3908
sg4
S'survivors'
p3909
sg6
I20
sa(dp3910
g2
S'Warp three... warp four... The warship is simultaneously matching our curve point per point. Warp four point five... warp five... warp five point five...'
p3911
sg4
S'survivors'
p3912
sg6
I24
sa(dp3913
g2
S'An unusual E-M burst. Readings off scale.'
p3914
sg4
S'symbiosis'
p3915
sg6
I7
sa(dp3916
g2
S"And that's the trap."
p3917
sg4
S'symbiosis'
p3918
sg6
I4
sa(dp3919
g2
S'As in the twenty-first century... when Earth governments used narcotics to control the military.'
p3920
sg4
S'symbiosis'
p3921
sg6
I14
sa(dp3922
g2
S'But it does happen. So why do people even start?'
p3923
sg4
S'symbiosis'
p3924
sg6
I10
sa(dp3925
g2
S'Captain, deflectors are being hit by a huge burst of X-rays.'
p3926
sg4
S'symbiosis'
p3927
sg6
I11
sa(dp3928
g2
S"I can understand how this could happen to the Ornarans... What I can't understand is why anyone would voluntarily become dependent upon a chemical."
p3929
sg4
S'symbiosis'
p3930
sg6
I24
sa(dp3931
g2
S"I guess I just don't understand."
p3932
sg4
S'symbiosis'
p3933
sg6
I6
sa(dp3934
g2
S'So you take more.'
p3935
sg4
S'symbiosis'
p3936
sg6
I4
sa(dp3937
g2
S'Why?'
p3938
sg4
S'symbiosis'
p3939
sg6
I1
sa(dp3940
g2
S'Wow -- look!  Sir, my console seems to be overloading.'
p3941
sg4
S'symbiosis'
p3942
sg6
I10
sa(dp3943
g2
S"A Romulan ship? With their cloaking device, we shouldn't pick them up at all."
p3944
sg4
S'tinman'
p3945
sg6
I14
sa(dp3946
g2
S'Aye, sir.'
p3947
sg4
S'tinman'
p3948
sg6
I2
sa(dp3949
g2
S'Captain, the diameter of the star has decreased by one hundred thousand kilometers.'
p3950
sg4
S'tinman'
p3951
sg6
I13
sa(dp3952
g2
S"Commander Data, I'm picking up an unusual echo from my navigational sensors."
p3953
sg4
S'tinman'
p3954
sg6
I12
sa(dp3955
g2
S"Dead stop, Captain. Sir--  We've been thrown clear of Beta Stromgren. Distance -- three point eight billion kilometers."
p3956
sg4
S'tinman'
p3957
sg6
I18
sa(dp3958
g2
S'Like what?'
p3959
sg4
S'tinman'
p3960
sg6
I2
sa(dp3961
g2
S'Their lead is too great.'
p3962
sg4
S'tinman'
p3963
sg6
I5
sa(dp3964
g2
S'Hey... not bad.'
p3965
sg4
S'transfigurations'
p3966
sg6
I3
sa(dp3967
g2
S'Hi mom. We still on for dinner tonight?'
p3968
sg4
S'transfigurations'
p3969
sg6
I8
sa(dp3970
g2
S'I think I understand.'
p3971
sg4
S'transfigurations'
p3972
sg6
I4
sa(dp3973
g2
S'Kayaking again?'
p3974
sg4
S'transfigurations'
p3975
sg6
I2
sa(dp3976
g2
S"So how's my mom's favorite patient?"
p3977
sg4
S'transfigurations'
p3978
sg6
I6
sa(dp3979
g2
S"Sounds like there's more to it than that."
p3980
sg4
S'transfigurations'
p3981
sg6
I8
sa(dp3982
g2
S'You know... I really like him.'
p3983
sg4
S'transfigurations'
p3984
sg6
I6
sa(dp3985
g2
S"You said it, I didn't."
p3986
sg4
S'transfigurations'
p3987
sg6
I5
sa(dp3988
g2
S'You seem pretty taken with him yourself.'
p3989
sg4
S'transfigurations'
p3990
sg6
I7
sa(dp3991
g2
S'Course to intercept.'
p3992
sg4
S'unnatural'
p3993
sg6
I3
sa(dp3994
g2
S'No other vessels of any kind within two parsecs.'
p3995
sg4
S'unnatural'
p3996
sg6
I9
sa(dp3997
g2
S'Sir. Commander Data is back aboard.'
p3998
sg4
S'unnatural'
p3999
sg6
I6
sa(dp4000
g2
S'Aye, sir.'
p4001
sg4
S'vengeance'
p4002
sg6
I2
sa(dp4003
g2
S"But you're helping Sovereign Marouk to change all that..."
p4004
sg4
S'vengeance'
p4005
sg6
I9
sa(dp4006
g2
S'Campfires, Data.'
p4007
sg4
S'vengeance'
p4008
sg6
I2
sa(dp4009
g2
S'Entering standard orbit of Gamma Hromi Two, sir.'
p4010
sg4
S'vengeance'
p4011
sg6
I8
sa(dp4012
g2
S"I didn't say --"
p4013
sg4
S'vengeance'
p4014
sg6
I4
sa(dp4015
g2
S"It's the locally Euclidean metrization of a k-fold contravariant Riemannian tensor field."
p4016
sg4
S'vengeance'
p4017
sg6
I12
sa(dp4018
g2
S'Math.'
p4019
sg4
S'vengeance'
p4020
sg6
I1
sa(dp4021
g2
S'My studies.'
p4022
sg4
S'vengeance'
p4023
sg6
I2
sa(dp4024
g2
S'Sure I can. But if we take this heading...'
p4025
sg4
S'vengeance'
p4026
sg6
I9
sa(dp4027
g2
S"That'll take us through the center of an asteroid belt."
p4028
sg4
S'vengeance'
p4029
sg6
I10
sa(dp4030
g2
S'This is our present position.'
p4031
sg4
S'vengeance'
p4032
sg6
I5
sa(dp4033
g2
S'You have children?'
p4034
sg4
S'vengeance'
p4035
sg6
I3
sa(dp4036
g2
S"You're a thief."
p4037
sg4
S'vengeance'
p4038
sg6
I3
sa(dp4039
g2
S'Course is set.'
p4040
sg4
S'whisper'
p4041
sg6
I3
sa(dp4042
g2
S'Reducing velocity to one-half impulse.'
p4043
sg4
S'whisper'
p4044
sg6
I5
sa(dp4045
g2
S'Slowing to one-half impulse.'
p4046
sg4
S'whisper'
p4047
sg6
I4
sa(dp4048
g2
S'Standard orbit.'
p4049
sg4
S'whisper'
p4050
sg6
I2
sa(dp4051
g2
S'Warp eight -- aye.'
p4052
sg4
S'whisper'
p4053
sg6
I4
sa(dp4054
g2
S'We are approaching Solais Five.'
p4055
sg4
S'whisper'
p4056
sg6
I5
sa(dp4057
g2
S'Yes, sir.'
p4058
sg4
S'whisper'
p4059
sg6
I2
sa(dp4060
g2
S'Aye, sir.  All decks report Condition Yellow.'
p4061
sg4
S'yesterday'
p4062
sg6
I7
sa(dp4063
g2
S'But that cruiser was destroyed with all hands about twenty years ago.'
p4064
sg4
S'yesterday'
p4065
sg6
I12
sa(dp4066
g2
S'Fourteen minutes, thirty-one seconds.'
p4067
sg4
S'yesterday'
p4068
sg6
I4
sa(dp4069
g2
S'Long-range scans have picked up Klingon battlecruisers, Captain. They are on an intercept course.'
p4070
sg4
S'yesterday'
p4071
sg6
I14
sa(dp4072
g2
S'Message coming in from Starfleet monitor stations, Captain. Klingon battlecruisers have been reported moving toward this sector.'
p4073
sg4
S'yesterday'
p4074
sg6
I17
sa(dp4075
g2
S'One ship has broken off and is heading toward the Enterprise-C.'
p4076
sg4
S'yesterday'
p4077
sg6
I11
sa(dp4078
g2
S'Out of seven hundred.'
p4079
sg4
S'yesterday'
p4080
sg6
I4
sa(dp4081
g2
S'Sir, navigational subsystems are unable to give coordinates on the object.'
p4082
sg4
S'yesterday'
p4083
sg6
I11
sa(dp4084
g2
S'The Klingons are flanking us... trying to draw us away from the Enterprise-C.'
p4085
sg4
S'yesterday'
p4086
sg6
I13
sa(dp4087
g2
S"Three K'vort class battlecruisers."
p4088
sg4
S'yesterday'
p4089
sg6
I4
sa.